

Microchip MPLAB XC8 Assembler V2.36 build 20220127204148 
                                                                                               Tue Apr 29 19:30:26 2025

Microchip MPLAB XC8 C Compiler v2.36 (Free license) build 20220127204148 Og1 
     1                           	processor	16F877A
     2                           	pagewidth 120
     3                           	opt	flic
     4                           	psect	idataBANK0,global,class=CODE,delta=2,noexec
     5                           	psect	strings,global,class=STRING,delta=2,noexec
     6                           	psect	nvBANK0,global,class=BANK0,space=1,delta=1,noexec
     7                           	psect	cinit,global,class=CODE,merge=1,delta=2
     8                           	psect	bssBANK0,global,class=BANK0,space=1,delta=1,noexec
     9                           	psect	dataBANK0,global,class=BANK0,space=1,delta=1,noexec
    10                           	psect	cstackCOMMON,global,class=COMMON,space=1,delta=1,noexec
    11                           	psect	cstackBANK0,global,class=BANK0,space=1,delta=1,noexec
    12                           	psect	maintext,global,class=CODE,split=1,delta=2
    13                           	psect	text1,local,class=CODE,merge=1,delta=2
    14                           	psect	text2,local,class=CODE,merge=1,delta=2
    15                           	psect	text3,local,class=CODE,merge=1,delta=2
    16                           	psect	text4,local,class=CODE,merge=1,delta=2
    17                           	psect	text5,local,class=CODE,merge=1,delta=2
    18                           	psect	text6,local,class=CODE,merge=1,delta=2
    19                           	psect	text7,local,class=CODE,merge=1,delta=2
    20                           	psect	text8,local,class=CODE,merge=1,delta=2,group=1
    21                           	psect	text9,local,class=CODE,merge=1,delta=2
    22                           	psect	text10,local,class=CODE,merge=1,delta=2
    23                           	psect	text11,local,class=CODE,merge=1,delta=2,group=2
    24                           	psect	text12,local,class=CODE,merge=1,delta=2,group=2
    25                           	psect	text13,local,class=CODE,merge=1,delta=2,group=2
    26                           	psect	text14,local,class=CODE,merge=1,delta=2,group=2
    27                           	psect	text15,local,class=CODE,merge=1,delta=2
    28                           	psect	text16,local,class=CODE,merge=1,delta=2
    29                           	psect	text17,local,class=CODE,merge=1,delta=2
    30                           	psect	idloc,global,abs,ovrld,class=IDLOC,space=5,delta=2,noexec
    31                           	psect	config,global,abs,ovrld,class=CONFIG,space=4,delta=2,noexec
    32                           	dabs	1,0x7E,2
    33  0000                     
    34                           ; Version 2.40
    35                           ; Generated 17/11/2021 GMT
    36                           ; 
    37                           ; Copyright © 2021, Microchip Technology Inc. and its subsidiaries ("Microchip")
    38                           ; All rights reserved.
    39                           ; 
    40                           ; This software is developed by Microchip Technology Inc. and its subsidiaries ("Microch
      +                          ip").
    41                           ; 
    42                           ; Redistribution and use in source and binary forms, with or without modification, are
    43                           ; permitted provided that the following conditions are met:
    44                           ; 
    45                           ;     1. Redistributions of source code must retain the above copyright notice, this lis
      +                          t of
    46                           ;        conditions and the following disclaimer.
    47                           ; 
    48                           ;     2. Redistributions in binary form must reproduce the above copyright notice, this 
      +                          list
    49                           ;        of conditions and the following disclaimer in the documentation and/or other
    50                           ;        materials provided with the distribution. Publication is not required when
    51                           ;        this file is used in an embedded application.
    52                           ; 
    53                           ;     3. Microchip's name may not be used to endorse or promote products derived from th
      +                          is
    54                           ;        software without specific prior written permission.
    55                           ; 
    56                           ; THIS SOFTWARE IS PROVIDED BY MICROCHIP "AS IS" AND ANY EXPRESS OR IMPLIED WARRANTIES,
    57                           ; INCLUDING, BUT NOT LIMITED TO, THE IMPLIED WARRANTIES OF MERCHANTABILITY AND FITNESS F
      +                          OR
    58                           ; PURPOSE ARE DISCLAIMED.  IN NO EVENT SHALL MICROCHIP BE LIABLE FOR ANY DIRECT, INDIREC
      +                          T,
    59                           ; INCIDENTAL, SPECIAL, EXEMPLARY, OR CONSEQUENTIAL DAMAGES (INCLUDING BUT NOT LIMITED TO
    60                           ; PROCUREMENT OF SUBSTITUTE GOODS OR SERVICES; LOSS OF USE, DATA OR PROFITS; OR BUSINESS
    61                           ; INTERRUPTION) HOWSOEVER CAUSED AND ON ANY THEORY OF LIABILITY, WHETHER IN CONTRACT, ST
      +                          RICT
    62                           ; LIABILITY, OR TORT (INCLUDING NEGLIGENCE OR OTHERWISE) ARISING IN ANY WAY OUT OF THE U
      +                          SE OF
    63                           ; THIS SOFTWARE, EVEN IF ADVISED OF THE POSSIBILITY OF SUCH DAMAGE.
    64                           ; 
    65                           ; 
    66                           ; Code-generator required, PIC16F877A Definitions
    67                           ; 
    68                           ; SFR Addresses
    69  0000                     	;# 
    70  0001                     	;# 
    71  0002                     	;# 
    72  0003                     	;# 
    73  0004                     	;# 
    74  0005                     	;# 
    75  0006                     	;# 
    76  0007                     	;# 
    77  0008                     	;# 
    78  0009                     	;# 
    79  000A                     	;# 
    80  000B                     	;# 
    81  000C                     	;# 
    82  000D                     	;# 
    83  000E                     	;# 
    84  000E                     	;# 
    85  000F                     	;# 
    86  0010                     	;# 
    87  0011                     	;# 
    88  0012                     	;# 
    89  0013                     	;# 
    90  0014                     	;# 
    91  0015                     	;# 
    92  0015                     	;# 
    93  0016                     	;# 
    94  0017                     	;# 
    95  0018                     	;# 
    96  0019                     	;# 
    97  001A                     	;# 
    98  001B                     	;# 
    99  001B                     	;# 
   100  001C                     	;# 
   101  001D                     	;# 
   102  001E                     	;# 
   103  001F                     	;# 
   104  0081                     	;# 
   105  0085                     	;# 
   106  0086                     	;# 
   107  0087                     	;# 
   108  0088                     	;# 
   109  0089                     	;# 
   110  008C                     	;# 
   111  008D                     	;# 
   112  008E                     	;# 
   113  0091                     	;# 
   114  0092                     	;# 
   115  0093                     	;# 
   116  0094                     	;# 
   117  0098                     	;# 
   118  0099                     	;# 
   119  009C                     	;# 
   120  009D                     	;# 
   121  009E                     	;# 
   122  009F                     	;# 
   123  010C                     	;# 
   124  010D                     	;# 
   125  010E                     	;# 
   126  010F                     	;# 
   127  018C                     	;# 
   128  018D                     	;# 
   129  0000                     	;# 
   130  0001                     	;# 
   131  0002                     	;# 
   132  0003                     	;# 
   133  0004                     	;# 
   134  0005                     	;# 
   135  0006                     	;# 
   136  0007                     	;# 
   137  0008                     	;# 
   138  0009                     	;# 
   139  000A                     	;# 
   140  000B                     	;# 
   141  000C                     	;# 
   142  000D                     	;# 
   143  000E                     	;# 
   144  000E                     	;# 
   145  000F                     	;# 
   146  0010                     	;# 
   147  0011                     	;# 
   148  0012                     	;# 
   149  0013                     	;# 
   150  0014                     	;# 
   151  0015                     	;# 
   152  0015                     	;# 
   153  0016                     	;# 
   154  0017                     	;# 
   155  0018                     	;# 
   156  0019                     	;# 
   157  001A                     	;# 
   158  001B                     	;# 
   159  001B                     	;# 
   160  001C                     	;# 
   161  001D                     	;# 
   162  001E                     	;# 
   163  001F                     	;# 
   164  0081                     	;# 
   165  0085                     	;# 
   166  0086                     	;# 
   167  0087                     	;# 
   168  0088                     	;# 
   169  0089                     	;# 
   170  008C                     	;# 
   171  008D                     	;# 
   172  008E                     	;# 
   173  0091                     	;# 
   174  0092                     	;# 
   175  0093                     	;# 
   176  0094                     	;# 
   177  0098                     	;# 
   178  0099                     	;# 
   179  009C                     	;# 
   180  009D                     	;# 
   181  009E                     	;# 
   182  009F                     	;# 
   183  010C                     	;# 
   184  010D                     	;# 
   185  010E                     	;# 
   186  010F                     	;# 
   187  018C                     	;# 
   188  018D                     	;# 
   189                           
   190                           	psect	idataBANK0
   191  0047                     __pidataBANK0:
   192                           
   193                           ;initializer for _nro_pin
   194  0047  3407               	retlw	7
   195                           
   196                           	psect	strings
   197  0003                     __pstrings:
   198  0003                     stringtab:
   199  0003                     __stringtab:
   200  0003                     stringcode:	
   201                           ;	String table - string pointers are 1 byte each
   202                           
   203  0003                     stringdir:
   204  0003  3000               	movlw	high stringdir
   205  0004  008A               	movwf	10
   206  0005  0804               	movf	4,w
   207  0006  0A84               	incf	4,f
   208  0007  0782               	addwf	2,f
   209  0008                     __stringbase:
   210  0008  3400               	retlw	0
   211  0009                     __end_of__stringtab:
   212  0009                     _dpowers:
   213  0009  3401               	retlw	1
   214  000A  3400               	retlw	0
   215  000B  340A               	retlw	10
   216  000C  3400               	retlw	0
   217  000D  3464               	retlw	100
   218  000E  3400               	retlw	0
   219  000F  34E8               	retlw	232
   220  0010  3403               	retlw	3
   221  0011  3410               	retlw	16
   222  0012  3427               	retlw	39
   223  0013                     __end_of_dpowers:
   224  0013                     STR_2:
   225  0013  3441               	retlw	65	;'A'
   226  0014  344E               	retlw	78	;'N'
   227  0015  3437               	retlw	55	;'7'
   228  0016  3420               	retlw	32	;' '
   229  0017  343D               	retlw	61	;'='
   230  0018  3420               	retlw	32	;' '
   231  0019  3425               	retlw	37	;'%'
   232  001A  3475               	retlw	117	;'u'
   233  001B  340D               	retlw	13
   234  001C  340A               	retlw	10
   235  001D  3400               	retlw	0
   236  001E                     STR_1:
   237  001E  3469               	retlw	105	;'i'
   238  001F  346E               	retlw	110	;'n'
   239  0020  3469               	retlw	105	;'i'
   240  0021  3463               	retlw	99	;'c'
   241  0022  3469               	retlw	105	;'i'
   242  0023  346F               	retlw	111	;'o'
   243  0024  3400               	retlw	0
   244                           
   245                           	psect	nvBANK0
   246  0041                     __pnvBANK0:
   247  0041                     _port_act:
   248  0041                     	ds	1
   249  0009                     _PORTE	set	9
   250  0008                     _PORTD	set	8
   251  0007                     _PORTC	set	7
   252  0005                     _PORTA	set	5
   253  0006                     _PORTB	set	6
   254  001E                     _ADRESH	set	30
   255  001F                     _ADCON0	set	31
   256  0019                     _TXREG	set	25
   257  0018                     _RCSTAbits	set	24
   258  004A                     _RE2	set	74
   259  0049                     _RE1	set	73
   260  0048                     _RE0	set	72
   261  00FA                     _GO_nDONE	set	250
   262  0089                     _TRISE	set	137
   263  0088                     _TRISD	set	136
   264  0087                     _TRISC	set	135
   265  0085                     _TRISA	set	133
   266  0086                     _TRISB	set	134
   267  009E                     _ADRESL	set	158
   268  009F                     _ADCON1	set	159
   269  0099                     _SPBRG	set	153
   270  0098                     _TXSTAbits	set	152
   271                           
   272                           	psect	cinit
   273  07F0                     start_initialization:	
   274                           ; #config settings
   275                           
   276  07F0                     __initialization:
   277                           
   278                           ; Initialize objects allocated to BANK0
   279  07F0  120A  118A  2047  120A  118A  	fcall	__pidataBANK0	;fetch initializer
   280  07F5  00C2               	movwf	__pdataBANK0& (0+127)
   281                           
   282                           ; Clear objects allocated to BANK0
   283  07F6  01BB               	clrf	__pbssBANK0& (0+127)
   284  07F7  01BC               	clrf	(__pbssBANK0+1)& (0+127)
   285  07F8  01BD               	clrf	(__pbssBANK0+2)& (0+127)
   286  07F9  01BE               	clrf	(__pbssBANK0+3)& (0+127)
   287  07FA  01BF               	clrf	(__pbssBANK0+4)& (0+127)
   288  07FB  01C0               	clrf	(__pbssBANK0+5)& (0+127)
   289  07FC                     end_of_initialization:	
   290                           ;End of C runtime variable initialization code
   291                           
   292  07FC                     __end_of__initialization:
   293  07FC  0183               	clrf	3
   294  07FD  120A  118A  2D13   	ljmp	_main	;jump to C main() function
   295                           
   296                           	psect	bssBANK0
   297  003B                     __pbssBANK0:
   298  003B                     _caso:
   299  003B                     	ds	1
   300  003C                     _xx:
   301  003C                     	ds	1
   302  003D                     _prueba:
   303  003D                     	ds	1
   304  003E                     _mask:
   305  003E                     	ds	1
   306  003F                     _puerto:
   307  003F                     	ds	1
   308  0040                     _incremento:
   309  0040                     	ds	1
   310                           
   311                           	psect	dataBANK0
   312  0042                     __pdataBANK0:
   313  0042                     _nro_pin:
   314  0042                     	ds	1
   315                           
   316                           	psect	cstackCOMMON
   317  0070                     __pcstackCOMMON:
   318  0070                     ?_port_conf_r1:
   319  0070                     ??_port_conf_r1:	
   320                           ; 1 bytes @ 0x0
   321                           
   322  0070                     ?_porte_ent:	
   323                           ; 1 bytes @ 0x0
   324                           
   325  0070                     ??_porte_ent:	
   326                           ; 1 bytes @ 0x0
   327                           
   328  0070                     ?_Prueba_sal:	
   329                           ; 1 bytes @ 0x0
   330                           
   331  0070                     ?_port_conf_r2:	
   332                           ; 1 bytes @ 0x0
   333                           
   334  0070                     ??_port_conf_r2:	
   335                           ; 1 bytes @ 0x0
   336                           
   337  0070                     ?_porte_sal:	
   338                           ; 1 bytes @ 0x0
   339                           
   340  0070                     ??_porte_sal:	
   341                           ; 1 bytes @ 0x0
   342                           
   343  0070                     ?_salidas:	
   344                           ; 1 bytes @ 0x0
   345                           
   346  0070                     ??_salidas:	
   347                           ; 1 bytes @ 0x0
   348                           
   349  0070                     ?_UART_Init:	
   350                           ; 1 bytes @ 0x0
   351                           
   352  0070                     ??_UART_Init:	
   353                           ; 1 bytes @ 0x0
   354                           
   355  0070                     ?_UART_Write:	
   356                           ; 1 bytes @ 0x0
   357                           
   358  0070                     ??_UART_Write:	
   359                           ; 1 bytes @ 0x0
   360                           
   361  0070                     ?_putch:	
   362                           ; 1 bytes @ 0x0
   363                           
   364  0070                     ?_ADC_Init:	
   365                           ; 1 bytes @ 0x0
   366                           
   367  0070                     ??_ADC_Init:	
   368                           ; 1 bytes @ 0x0
   369                           
   370  0070                     ?_ADC:	
   371                           ; 1 bytes @ 0x0
   372                           
   373  0070                     ?_main:	
   374                           ; 1 bytes @ 0x0
   375                           
   376  0070                     ?_ADC_Read:	
   377                           ; 1 bytes @ 0x0
   378                           
   379  0070                     ?___lwdiv:	
   380                           ; 2 bytes @ 0x0
   381                           
   382  0070                     ?___xxtofl:	
   383                           ; 2 bytes @ 0x0
   384                           
   385  0070                     UART_Write@data:	
   386                           ; 4 bytes @ 0x0
   387                           
   388  0070                     ___lwdiv@divisor:	
   389                           ; 1 bytes @ 0x0
   390                           
   391  0070                     ___xxtofl@val:	
   392                           ; 2 bytes @ 0x0
   393                           
   394                           
   395                           ; 4 bytes @ 0x0
   396  0070                     	ds	1
   397  0071                     ??_putch:
   398  0071                     putch@data:	
   399                           ; 1 bytes @ 0x1
   400                           
   401                           
   402                           ; 1 bytes @ 0x1
   403  0071                     	ds	1
   404  0072                     ??_ADC_Read:
   405  0072                     ___lwdiv@dividend:	
   406                           ; 1 bytes @ 0x2
   407                           
   408                           
   409                           ; 2 bytes @ 0x2
   410  0072                     	ds	1
   411  0073                     salidas@i:
   412                           
   413                           ; 1 bytes @ 0x3
   414  0073                     	ds	1
   415  0074                     ??_Prueba_sal:
   416  0074                     ??___lwdiv:	
   417                           ; 1 bytes @ 0x4
   418                           
   419  0074                     ??___xxtofl:	
   420                           ; 1 bytes @ 0x4
   421                           
   422  0074                     ADC_Read@channel:	
   423                           ; 1 bytes @ 0x4
   424                           
   425                           
   426                           ; 1 bytes @ 0x4
   427  0074                     	ds	1
   428  0075                     Prueba_sal@i:
   429  0075                     ___lwdiv@quotient:	
   430                           ; 1 bytes @ 0x5
   431                           
   432                           
   433                           ; 2 bytes @ 0x5
   434  0075                     	ds	2
   435  0077                     ___lwdiv@counter:
   436                           
   437                           ; 1 bytes @ 0x7
   438  0077                     	ds	1
   439  0078                     ?___lwmod:
   440  0078                     ___xxtofl@sign:	
   441                           ; 2 bytes @ 0x8
   442                           
   443  0078                     ___lwmod@divisor:	
   444                           ; 1 bytes @ 0x8
   445                           
   446                           
   447                           ; 2 bytes @ 0x8
   448  0078                     	ds	1
   449  0079                     ___xxtofl@exp:
   450                           
   451                           ; 1 bytes @ 0x9
   452  0079                     	ds	1
   453  007A                     ___lwmod@dividend:
   454  007A                     ___xxtofl@arg:	
   455                           ; 2 bytes @ 0xA
   456                           
   457                           
   458                           ; 4 bytes @ 0xA
   459  007A                     	ds	2
   460  007C                     ??___lwmod:
   461                           
   462                           ; 1 bytes @ 0xC
   463  007C                     	ds	1
   464  007D                     ___lwmod@counter:
   465                           
   466                           ; 1 bytes @ 0xD
   467  007D                     	ds	1
   468                           
   469                           	psect	cstackBANK0
   470  0020                     __pcstackBANK0:
   471  0020                     ?___flge:
   472  0020                     ?_printf:	
   473                           ; 1 bit 
   474                           
   475  0020                     ___flge@ff1:	
   476                           ; 2 bytes @ 0x0
   477                           
   478                           
   479                           ; 4 bytes @ 0x0
   480  0020                     	ds	2
   481  0022                     ??_printf:
   482                           
   483                           ; 1 bytes @ 0x2
   484  0022                     	ds	2
   485  0024                     ___flge@ff2:
   486                           
   487                           ; 4 bytes @ 0x4
   488  0024                     	ds	1
   489  0025                     printf@flag:
   490                           
   491                           ; 1 bytes @ 0x5
   492  0025                     	ds	1
   493  0026                     printf@ap:
   494                           
   495                           ; 1 bytes @ 0x6
   496  0026                     	ds	1
   497  0027                     printf@val:
   498                           
   499                           ; 2 bytes @ 0x7
   500  0027                     	ds	1
   501  0028                     ??___flge:
   502                           
   503                           ; 1 bytes @ 0x8
   504  0028                     	ds	1
   505  0029                     printf@prec:
   506                           
   507                           ; 1 bytes @ 0x9
   508  0029                     	ds	1
   509  002A                     printf@f:
   510                           
   511                           ; 1 bytes @ 0xA
   512  002A                     	ds	1
   513  002B                     printf@c:
   514                           
   515                           ; 1 bytes @ 0xB
   516  002B                     	ds	1
   517  002C                     ??_ADC:
   518                           
   519                           ; 1 bytes @ 0xC
   520  002C                     	ds	3
   521  002F                     ADC@i:
   522                           
   523                           ; 2 bytes @ 0xF
   524  002F                     	ds	2
   525  0031                     ADC@valor:
   526                           
   527                           ; 2 bytes @ 0x11
   528  0031                     	ds	2
   529  0033                     ??_main:
   530                           
   531                           ; 1 bytes @ 0x13
   532  0033                     	ds	3
   533  0036                     main@i_206:
   534                           
   535                           ; 1 bytes @ 0x16
   536  0036                     	ds	1
   537  0037                     main@i_207:
   538                           
   539                           ; 1 bytes @ 0x17
   540  0037                     	ds	1
   541  0038                     main@i_208:
   542                           
   543                           ; 1 bytes @ 0x18
   544  0038                     	ds	1
   545  0039                     main@i_209:
   546                           
   547                           ; 1 bytes @ 0x19
   548  0039                     	ds	1
   549  003A                     main@i_211:
   550                           
   551                           ; 1 bytes @ 0x1A
   552  003A                     	ds	1
   553                           
   554                           	psect	maintext
   555  0513                     __pmaintext:	
   556 ;;
   557 ;;Main: autosize = 0, tempsize = 3, incstack = 0, save=0
   558 ;;
   559 ;; *************** function _main *****************
   560 ;; Defined at:
   561 ;;		line 122 in file "Probador1.c"
   562 ;; Parameters:    Size  Location     Type
   563 ;;		None
   564 ;; Auto vars:     Size  Location     Type
   565 ;;  i               1   25[BANK0 ] unsigned char 
   566 ;;  i               1   24[BANK0 ] unsigned char 
   567 ;;  i               1   23[BANK0 ] unsigned char 
   568 ;;  i               1   22[BANK0 ] unsigned char 
   569 ;;  i               1    0        unsigned char 
   570 ;;  i               1   26[BANK0 ] unsigned char 
   571 ;; Return value:  Size  Location     Type
   572 ;;                  1    wreg      void 
   573 ;; Registers used:
   574 ;;		wreg, fsr0l, fsr0h, status,2, status,0, btemp+1, pclath, cstack
   575 ;; Tracked objects:
   576 ;;		On entry : B00/0
   577 ;;		On exit  : 0/0
   578 ;;		Unchanged: 0/0
   579 ;; Data sizes:     COMMON   BANK0   BANK1   BANK3   BANK2
   580 ;;      Params:         0       0       0       0       0
   581 ;;      Locals:         0       5       0       0       0
   582 ;;      Temps:          0       3       0       0       0
   583 ;;      Totals:         0       8       0       0       0
   584 ;;Total ram usage:        8 bytes
   585 ;; Hardware stack levels required when called: 4
   586 ;; This function calls:
   587 ;;		_ADC
   588 ;;		_Prueba_sal
   589 ;;		_port_conf_r1
   590 ;;		_port_conf_r2
   591 ;;		_porte_ent
   592 ;;		_porte_sal
   593 ;; This function is called by:
   594 ;;		Startup code after reset
   595 ;; This function uses a non-reentrant model
   596 ;;
   597                           
   598  0513                     _main:	
   599                           ;psect for function _main
   600                           
   601  0513                     l1779:	
   602                           ;incstack = 0
   603                           ; Regs used in _main: [wreg-fsr0h+status,2+status,0+btemp+1+pclath+cstack]
   604                           
   605                           
   606                           ;Probador1.c: 123:     port_conf_r1();
   607  0513  120A  118A  2082  120A  118A  	fcall	_port_conf_r1
   608                           
   609                           ;Probador1.c: 124:     porte_ent();
   610  0518  120A  118A  204C  120A  118A  	fcall	_porte_ent
   611  051D                     l1781:
   612                           
   613                           ;Probador1.c: 125:     port_act = PORTA;
   614  051D  1283               	bcf	3,5	;RP0=0, select bank0
   615  051E  1303               	bcf	3,6	;RP1=0, select bank0
   616  051F  0805               	movf	5,w	;volatile
   617  0520  00B3               	movwf	??_main
   618  0521  0833               	movf	??_main,w
   619  0522  00C1               	movwf	_port_act
   620  0523                     l1783:
   621                           
   622                           ;Probador1.c: 126:     puerto = 0;
   623  0523  01BF               	clrf	_puerto
   624  0524  2D2B               	goto	l116
   625  0525                     l1785:
   626                           
   627                           ;Probador1.c: 132:             if (xx == 1) {
   628  0525  033C               	decf	_xx,w
   629  0526  1D03               	btfss	3,2
   630  0527  2D29               	goto	u1721
   631  0528  2D2A               	goto	u1720
   632  0529                     u1721:
   633  0529  2D2B               	goto	l116
   634  052A                     u1720:
   635  052A  2D2F               	goto	l119
   636  052B                     l116:	
   637                           ;Probador1.c: 136:         }
   638                           
   639                           
   640                           ;Probador1.c: 131:         while (RE0 == 0) {
   641  052B  1C09               	btfss	9,0	;volatile
   642  052C  2D2E               	goto	u1731
   643  052D  2D2F               	goto	u1730
   644  052E                     u1731:
   645  052E  2D25               	goto	l1785
   646  052F                     u1730:
   647  052F                     l119:
   648                           
   649                           ;Probador1.c: 137:         xx = 1;
   650  052F  01BC               	clrf	_xx
   651  0530  0ABC               	incf	_xx,f
   652                           
   653                           ;Probador1.c: 139:         switch (puerto) {
   654  0531  2F78               	goto	l1989
   655  0532                     l1789:
   656                           
   657                           ;Probador1.c: 141:                 if (prueba == 0) {
   658  0532  083D               	movf	_prueba,w
   659  0533  1D03               	btfss	3,2
   660  0534  2D36               	goto	u1741
   661  0535  2D37               	goto	u1740
   662  0536                     u1741:
   663  0536  2D59               	goto	l1805
   664  0537                     u1740:
   665  0537                     l1791:
   666                           
   667                           ;Probador1.c: 142:                     port_conf_r1();
   668  0537  120A  118A  2082  120A  118A  	fcall	_port_conf_r1
   669                           
   670                           ;Probador1.c: 143:                     porte_ent();
   671  053C  120A  118A  204C  120A  118A  	fcall	_porte_ent
   672  0541                     l1793:
   673                           
   674                           ;Probador1.c: 144:                     Prueba_sal();
   675  0541  120A  118A  20A3  120A  118A  	fcall	_Prueba_sal
   676  0546                     l1795:
   677                           
   678                           ;Probador1.c: 146:                         if (RE1 == 1) {
   679  0546  1283               	bcf	3,5	;RP0=0, select bank0
   680  0547  1303               	bcf	3,6	;RP1=0, select bank0
   681  0548  1C89               	btfss	9,1	;volatile
   682  0549  2D4B               	goto	u1751
   683  054A  2D4C               	goto	u1750
   684  054B                     u1751:
   685  054B  2D4E               	goto	l124
   686  054C                     u1750:
   687  054C                     l1797:
   688                           
   689                           ;Probador1.c: 147:                             puerto = 0;
   690  054C  01BF               	clrf	_puerto
   691                           
   692                           ;Probador1.c: 148:                             break;
   693  054D  2F91               	goto	l1991
   694  054E                     l124:	
   695                           ;Probador1.c: 149:                         }
   696                           
   697                           
   698                           ;Probador1.c: 150:                         if (RE0 == 1) {
   699  054E  1C09               	btfss	9,0	;volatile
   700  054F  2D51               	goto	u1761
   701  0550  2D52               	goto	u1760
   702  0551                     u1761:
   703  0551  2D46               	goto	l1795
   704  0552                     u1760:
   705  0552                     l1799:
   706                           
   707                           ;Probador1.c: 151:                             puerto = 1;
   708  0552  01BF               	clrf	_puerto
   709  0553  0ABF               	incf	_puerto,f
   710  0554                     l1801:
   711                           
   712                           ;Probador1.c: 152:                             nro_pin = 9;
   713  0554  3009               	movlw	9
   714  0555  00B3               	movwf	??_main
   715  0556  0833               	movf	??_main,w
   716  0557  00C2               	movwf	_nro_pin
   717                           
   718                           ;Probador1.c: 153:                             break;
   719  0558  2F91               	goto	l1991
   720  0559                     l1805:
   721                           
   722                           ;Probador1.c: 158:                     port_conf_r2();
   723  0559  120A  118A  2065  120A  118A  	fcall	_port_conf_r2
   724  055E                     l1807:
   725                           
   726                           ;Probador1.c: 159:                     mask = 1;
   727  055E  1283               	bcf	3,5	;RP0=0, select bank0
   728  055F  1303               	bcf	3,6	;RP1=0, select bank0
   729  0560  01BE               	clrf	_mask
   730  0561  0ABE               	incf	_mask,f
   731  0562                     l1809:
   732                           
   733                           ;Probador1.c: 160:                     incremento = 1;
   734  0562  01C0               	clrf	_incremento
   735  0563  0AC0               	incf	_incremento,f
   736  0564                     l1811:
   737  0564  2DA3               	goto	l130
   738  0565                     l1813:
   739                           
   740                           ;Probador1.c: 163:                             if (PORTA & mask) {
   741  0565  0805               	movf	5,w	;volatile
   742  0566  053E               	andwf	_mask,w
   743  0567  1903               	btfsc	3,2
   744  0568  2D6A               	goto	u1771
   745  0569  2D6B               	goto	u1770
   746  056A                     u1771:
   747  056A  2D9A               	goto	l1825
   748  056B                     u1770:
   749  056B                     l1815:
   750                           
   751                           ;Probador1.c: 164:                                 RE2 = 1;
   752  056B  1509               	bsf	9,2	;volatile
   753  056C                     l1817:
   754                           
   755                           ;Probador1.c: 165:                                 _delay((unsigned long)((300)*(8000000
      +                          UL/4000.0)));
   756  056C  3004               	movlw	4
   757  056D  1283               	bcf	3,5	;RP0=0, select bank0
   758  056E  1303               	bcf	3,6	;RP1=0, select bank0
   759  056F  00B5               	movwf	??_main+2
   760  0570  300C               	movlw	12
   761  0571  00B4               	movwf	??_main+1
   762  0572  3033               	movlw	51
   763  0573  00B3               	movwf	??_main
   764  0574                     u2137:
   765  0574  0BB3               	decfsz	??_main,f
   766  0575  2D74               	goto	u2137
   767  0576  0BB4               	decfsz	??_main+1,f
   768  0577  2D74               	goto	u2137
   769  0578  0BB5               	decfsz	??_main+2,f
   770  0579  2D74               	goto	u2137
   771  057A                     l1819:
   772                           
   773                           ;Probador1.c: 166:                                 RE2 = 0;
   774  057A  1283               	bcf	3,5	;RP0=0, select bank0
   775  057B  1303               	bcf	3,6	;RP1=0, select bank0
   776  057C  1109               	bcf	9,2	;volatile
   777                           
   778                           ;Probador1.c: 167:                                 _delay((unsigned long)((50)*(8000000U
      +                          L/4000.0)));
   779  057D  3082               	movlw	130
   780  057E  1283               	bcf	3,5	;RP0=0, select bank0
   781  057F  1303               	bcf	3,6	;RP1=0, select bank0
   782  0580  00B4               	movwf	??_main+1
   783  0581  30DD               	movlw	221
   784  0582  00B3               	movwf	??_main
   785  0583                     u2147:
   786  0583  0BB3               	decfsz	??_main,f
   787  0584  2D83               	goto	u2147
   788  0585  0BB4               	decfsz	??_main+1,f
   789  0586  2D83               	goto	u2147
   790  0587                     l1821:
   791                           
   792                           ;Probador1.c: 168:                                 mask = (1 << incremento);
   793  0587  3001               	movlw	1
   794  0588  1283               	bcf	3,5	;RP0=0, select bank0
   795  0589  1303               	bcf	3,6	;RP1=0, select bank0
   796  058A  00B3               	movwf	??_main
   797  058B  0A40               	incf	_incremento,w
   798  058C  2D8F               	goto	u1784
   799  058D                     u1785:
   800  058D  1003               	clrc
   801  058E  0DB3               	rlf	??_main,f
   802  058F                     u1784:
   803  058F  3EFF               	addlw	-1
   804  0590  1D03               	skipz
   805  0591  2D8D               	goto	u1785
   806  0592  0833               	movf	??_main,w
   807  0593  00B4               	movwf	??_main+1
   808  0594  0834               	movf	??_main+1,w
   809  0595  00BE               	movwf	_mask
   810  0596                     l1823:
   811                           
   812                           ;Probador1.c: 169:                                 incremento++;
   813  0596  3001               	movlw	1
   814  0597  00B3               	movwf	??_main
   815  0598  0833               	movf	??_main,w
   816  0599  07C0               	addwf	_incremento,f
   817  059A                     l1825:
   818                           
   819                           ;Probador1.c: 171:                             if (incremento == 7) {
   820  059A  3007               	movlw	7
   821  059B  0640               	xorwf	_incremento,w
   822  059C  1D03               	btfss	3,2
   823  059D  2D9F               	goto	u1791
   824  059E  2DA0               	goto	u1790
   825  059F                     u1791:
   826  059F  2D65               	goto	l1813
   827  05A0                     u1790:
   828  05A0                     l1827:
   829                           
   830                           ;Probador1.c: 172:                                 puerto = 1;
   831  05A0  01BF               	clrf	_puerto
   832  05A1  0ABF               	incf	_puerto,f
   833                           
   834                           ;Probador1.c: 173:                                 break;
   835  05A2  2F91               	goto	l1991
   836  05A3                     l130:
   837  05A3  0842               	movf	_nro_pin,w
   838  05A4  1D03               	btfss	3,2
   839  05A5  2DA7               	goto	u1801
   840  05A6  2DA8               	goto	u1800
   841  05A7                     u1801:
   842  05A7  2D65               	goto	l1813
   843  05A8                     u1800:
   844  05A8  2F91               	goto	l1991
   845  05A9                     l1831:
   846                           
   847                           ;Probador1.c: 184:                 if (prueba == 0) {
   848  05A9  083D               	movf	_prueba,w
   849  05AA  1D03               	btfss	3,2
   850  05AB  2DAD               	goto	u1811
   851  05AC  2DAE               	goto	u1810
   852  05AD                     u1811:
   853  05AD  2DC3               	goto	l139
   854  05AE                     u1810:
   855  05AE                     l1833:
   856                           
   857                           ;Probador1.c: 185:                     Prueba_sal();
   858  05AE  120A  118A  20A3  120A  118A  	fcall	_Prueba_sal
   859  05B3                     l1835:
   860                           
   861                           ;Probador1.c: 187:                         if (RE1 == 1) {
   862  05B3  1283               	bcf	3,5	;RP0=0, select bank0
   863  05B4  1303               	bcf	3,6	;RP1=0, select bank0
   864  05B5  1C89               	btfss	9,1	;volatile
   865  05B6  2DB8               	goto	u1821
   866  05B7  2DB9               	goto	u1820
   867  05B8                     u1821:
   868  05B8  2DBA               	goto	l141
   869  05B9                     u1820:
   870  05B9  2DA0               	goto	l1827
   871  05BA                     l141:	
   872                           ;Probador1.c: 190:                         }
   873                           
   874                           
   875                           ;Probador1.c: 191:                         if (RE0 == 1) {
   876  05BA  1C09               	btfss	9,0	;volatile
   877  05BB  2DBD               	goto	u1831
   878  05BC  2DBE               	goto	u1830
   879  05BD                     u1831:
   880  05BD  2DB3               	goto	l1835
   881  05BE                     u1830:
   882  05BE                     l1839:
   883                           
   884                           ;Probador1.c: 192:                             puerto = 2;
   885  05BE  3002               	movlw	2
   886  05BF  00B3               	movwf	??_main
   887  05C0  0833               	movf	??_main,w
   888  05C1  00BF               	movwf	_puerto
   889                           
   890                           ;Probador1.c: 193:                             break;
   891  05C2  2F91               	goto	l1991
   892  05C3                     l139:
   893                           
   894                           ;Probador1.c: 198:                     incremento = 1;
   895  05C3  01C0               	clrf	_incremento
   896  05C4  0AC0               	incf	_incremento,f
   897  05C5                     l1843:
   898                           
   899                           ;Probador1.c: 199:                     nro_pin = 9;
   900  05C5  3009               	movlw	9
   901  05C6  00B3               	movwf	??_main
   902  05C7  0833               	movf	??_main,w
   903  05C8  00C2               	movwf	_nro_pin
   904  05C9                     l1845:
   905                           
   906                           ;Probador1.c: 200:                     mask = 1;
   907  05C9  01BE               	clrf	_mask
   908  05CA  0ABE               	incf	_mask,f
   909  05CB                     l1847:
   910                           
   911                           ;Probador1.c: 201:                     for (unsigned char i = 0; i < nro_pin; i = increm
      +                          ento) {
   912  05CB  01B6               	clrf	main@i_206
   913  05CC  2E10               	goto	l146
   914  05CD                     l1849:
   915                           
   916                           ;Probador1.c: 203:                             if (PORTB & mask) {
   917  05CD  0806               	movf	6,w	;volatile
   918  05CE  053E               	andwf	_mask,w
   919  05CF  1903               	btfsc	3,2
   920  05D0  2DD2               	goto	u1841
   921  05D1  2DD3               	goto	u1840
   922  05D2                     u1841:
   923  05D2  2E02               	goto	l1861
   924  05D3                     u1840:
   925  05D3                     l1851:
   926                           
   927                           ;Probador1.c: 204:                                 RE2 = 1;
   928  05D3  1509               	bsf	9,2	;volatile
   929  05D4                     l1853:
   930                           
   931                           ;Probador1.c: 205:                                 _delay((unsigned long)((300)*(8000000
      +                          UL/4000.0)));
   932  05D4  3004               	movlw	4
   933  05D5  1283               	bcf	3,5	;RP0=0, select bank0
   934  05D6  1303               	bcf	3,6	;RP1=0, select bank0
   935  05D7  00B5               	movwf	??_main+2
   936  05D8  300C               	movlw	12
   937  05D9  00B4               	movwf	??_main+1
   938  05DA  3033               	movlw	51
   939  05DB  00B3               	movwf	??_main
   940  05DC                     u2157:
   941  05DC  0BB3               	decfsz	??_main,f
   942  05DD  2DDC               	goto	u2157
   943  05DE  0BB4               	decfsz	??_main+1,f
   944  05DF  2DDC               	goto	u2157
   945  05E0  0BB5               	decfsz	??_main+2,f
   946  05E1  2DDC               	goto	u2157
   947  05E2                     l1855:
   948                           
   949                           ;Probador1.c: 206:                                 RE2 = 0;
   950  05E2  1283               	bcf	3,5	;RP0=0, select bank0
   951  05E3  1303               	bcf	3,6	;RP1=0, select bank0
   952  05E4  1109               	bcf	9,2	;volatile
   953                           
   954                           ;Probador1.c: 207:                                 _delay((unsigned long)((50)*(8000000U
      +                          L/4000.0)));
   955  05E5  3082               	movlw	130
   956  05E6  1283               	bcf	3,5	;RP0=0, select bank0
   957  05E7  1303               	bcf	3,6	;RP1=0, select bank0
   958  05E8  00B4               	movwf	??_main+1
   959  05E9  30DD               	movlw	221
   960  05EA  00B3               	movwf	??_main
   961  05EB                     u2167:
   962  05EB  0BB3               	decfsz	??_main,f
   963  05EC  2DEB               	goto	u2167
   964  05ED  0BB4               	decfsz	??_main+1,f
   965  05EE  2DEB               	goto	u2167
   966  05EF                     l1857:
   967                           
   968                           ;Probador1.c: 208:                                 mask = (1 << incremento);
   969  05EF  3001               	movlw	1
   970  05F0  1283               	bcf	3,5	;RP0=0, select bank0
   971  05F1  1303               	bcf	3,6	;RP1=0, select bank0
   972  05F2  00B3               	movwf	??_main
   973  05F3  0A40               	incf	_incremento,w
   974  05F4  2DF7               	goto	u1854
   975  05F5                     u1855:
   976  05F5  1003               	clrc
   977  05F6  0DB3               	rlf	??_main,f
   978  05F7                     u1854:
   979  05F7  3EFF               	addlw	-1
   980  05F8  1D03               	skipz
   981  05F9  2DF5               	goto	u1855
   982  05FA  0833               	movf	??_main,w
   983  05FB  00B4               	movwf	??_main+1
   984  05FC  0834               	movf	??_main+1,w
   985  05FD  00BE               	movwf	_mask
   986  05FE                     l1859:
   987                           
   988                           ;Probador1.c: 209:                                 incremento++;
   989  05FE  3001               	movlw	1
   990  05FF  00B3               	movwf	??_main
   991  0600  0833               	movf	??_main,w
   992  0601  07C0               	addwf	_incremento,f
   993  0602                     l1861:
   994                           
   995                           ;Probador1.c: 211:                             if (incremento == 9) {
   996  0602  3009               	movlw	9
   997  0603  0640               	xorwf	_incremento,w
   998  0604  1D03               	btfss	3,2
   999  0605  2E07               	goto	u1861
  1000  0606  2E08               	goto	u1860
  1001  0607                     u1861:
  1002  0607  2DCD               	goto	l1849
  1003  0608                     u1860:
  1004  0608                     l1863:
  1005                           
  1006                           ;Probador1.c: 212:                                 puerto = 2;
  1007  0608  3002               	movlw	2
  1008  0609  00B3               	movwf	??_main
  1009  060A  0833               	movf	??_main,w
  1010  060B  00BF               	movwf	_puerto
  1011  060C                     l1865:	
  1012                           ;Probador1.c: 213:                                 break;
  1013                           
  1014                           
  1015                           ;Probador1.c: 217:                     }
  1016  060C  0840               	movf	_incremento,w
  1017  060D  00B3               	movwf	??_main
  1018  060E  0833               	movf	??_main,w
  1019  060F  00B6               	movwf	main@i_206
  1020  0610                     l146:
  1021  0610  0842               	movf	_nro_pin,w
  1022  0611  0236               	subwf	main@i_206,w
  1023  0612  1C03               	skipc
  1024  0613  2E15               	goto	u1871
  1025  0614  2E16               	goto	u1870
  1026  0615                     u1871:
  1027  0615  2DCD               	goto	l1849
  1028  0616                     u1870:
  1029  0616  2F91               	goto	l1991
  1030  0617                     l1867:
  1031                           
  1032                           ;Probador1.c: 223:                 if (prueba == 0) {
  1033  0617  083D               	movf	_prueba,w
  1034  0618  1D03               	btfss	3,2
  1035  0619  2E1B               	goto	u1881
  1036  061A  2E1C               	goto	u1880
  1037  061B                     u1881:
  1038  061B  2E31               	goto	l155
  1039  061C                     u1880:
  1040  061C                     l1869:
  1041                           
  1042                           ;Probador1.c: 224:                     Prueba_sal();
  1043  061C  120A  118A  20A3  120A  118A  	fcall	_Prueba_sal
  1044  0621                     l1871:
  1045                           
  1046                           ;Probador1.c: 226:                         if (RE1 == 1) {
  1047  0621  1283               	bcf	3,5	;RP0=0, select bank0
  1048  0622  1303               	bcf	3,6	;RP1=0, select bank0
  1049  0623  1C89               	btfss	9,1	;volatile
  1050  0624  2E26               	goto	u1891
  1051  0625  2E27               	goto	u1890
  1052  0626                     u1891:
  1053  0626  2E28               	goto	l157
  1054  0627                     u1890:
  1055  0627  2DBE               	goto	l1839
  1056  0628                     l157:	
  1057                           ;Probador1.c: 229:                         }
  1058                           
  1059                           
  1060                           ;Probador1.c: 230:                         if (RE0 == 1) {
  1061  0628  1C09               	btfss	9,0	;volatile
  1062  0629  2E2B               	goto	u1901
  1063  062A  2E2C               	goto	u1900
  1064  062B                     u1901:
  1065  062B  2E21               	goto	l1871
  1066  062C                     u1900:
  1067  062C                     l1875:
  1068                           
  1069                           ;Probador1.c: 231:                             puerto = 3;
  1070  062C  3003               	movlw	3
  1071  062D  00B3               	movwf	??_main
  1072  062E  0833               	movf	??_main,w
  1073  062F  00BF               	movwf	_puerto
  1074                           
  1075                           ;Probador1.c: 232:                             break;
  1076  0630  2F91               	goto	l1991
  1077  0631                     l155:
  1078                           
  1079                           ;Probador1.c: 237:                     incremento = 1;
  1080  0631  01C0               	clrf	_incremento
  1081  0632  0AC0               	incf	_incremento,f
  1082  0633                     l1879:
  1083                           
  1084                           ;Probador1.c: 238:                     nro_pin = 9;
  1085  0633  3009               	movlw	9
  1086  0634  00B3               	movwf	??_main
  1087  0635  0833               	movf	??_main,w
  1088  0636  00C2               	movwf	_nro_pin
  1089  0637                     l1881:
  1090                           
  1091                           ;Probador1.c: 239:                     mask = 1;
  1092  0637  01BE               	clrf	_mask
  1093  0638  0ABE               	incf	_mask,f
  1094  0639                     l1883:
  1095                           
  1096                           ;Probador1.c: 240:                     for (unsigned char i = 0; i < nro_pin; i = increm
      +                          ento) {
  1097  0639  01B7               	clrf	main@i_207
  1098  063A  2E7E               	goto	l162
  1099  063B                     l1885:
  1100                           
  1101                           ;Probador1.c: 242:                             if (PORTC & mask) {
  1102  063B  0807               	movf	7,w	;volatile
  1103  063C  053E               	andwf	_mask,w
  1104  063D  1903               	btfsc	3,2
  1105  063E  2E40               	goto	u1911
  1106  063F  2E41               	goto	u1910
  1107  0640                     u1911:
  1108  0640  2E70               	goto	l1897
  1109  0641                     u1910:
  1110  0641                     l1887:
  1111                           
  1112                           ;Probador1.c: 243:                                 RE2 = 1;
  1113  0641  1509               	bsf	9,2	;volatile
  1114  0642                     l1889:
  1115                           
  1116                           ;Probador1.c: 244:                                 _delay((unsigned long)((300)*(8000000
      +                          UL/4000.0)));
  1117  0642  3004               	movlw	4
  1118  0643  1283               	bcf	3,5	;RP0=0, select bank0
  1119  0644  1303               	bcf	3,6	;RP1=0, select bank0
  1120  0645  00B5               	movwf	??_main+2
  1121  0646  300C               	movlw	12
  1122  0647  00B4               	movwf	??_main+1
  1123  0648  3033               	movlw	51
  1124  0649  00B3               	movwf	??_main
  1125  064A                     u2177:
  1126  064A  0BB3               	decfsz	??_main,f
  1127  064B  2E4A               	goto	u2177
  1128  064C  0BB4               	decfsz	??_main+1,f
  1129  064D  2E4A               	goto	u2177
  1130  064E  0BB5               	decfsz	??_main+2,f
  1131  064F  2E4A               	goto	u2177
  1132  0650                     l1891:
  1133                           
  1134                           ;Probador1.c: 245:                                 RE2 = 0;
  1135  0650  1283               	bcf	3,5	;RP0=0, select bank0
  1136  0651  1303               	bcf	3,6	;RP1=0, select bank0
  1137  0652  1109               	bcf	9,2	;volatile
  1138                           
  1139                           ;Probador1.c: 246:                                 _delay((unsigned long)((50)*(8000000U
      +                          L/4000.0)));
  1140  0653  3082               	movlw	130
  1141  0654  1283               	bcf	3,5	;RP0=0, select bank0
  1142  0655  1303               	bcf	3,6	;RP1=0, select bank0
  1143  0656  00B4               	movwf	??_main+1
  1144  0657  30DD               	movlw	221
  1145  0658  00B3               	movwf	??_main
  1146  0659                     u2187:
  1147  0659  0BB3               	decfsz	??_main,f
  1148  065A  2E59               	goto	u2187
  1149  065B  0BB4               	decfsz	??_main+1,f
  1150  065C  2E59               	goto	u2187
  1151  065D                     l1893:
  1152                           
  1153                           ;Probador1.c: 247:                                 mask = (1 << incremento);
  1154  065D  3001               	movlw	1
  1155  065E  1283               	bcf	3,5	;RP0=0, select bank0
  1156  065F  1303               	bcf	3,6	;RP1=0, select bank0
  1157  0660  00B3               	movwf	??_main
  1158  0661  0A40               	incf	_incremento,w
  1159  0662  2E65               	goto	u1924
  1160  0663                     u1925:
  1161  0663  1003               	clrc
  1162  0664  0DB3               	rlf	??_main,f
  1163  0665                     u1924:
  1164  0665  3EFF               	addlw	-1
  1165  0666  1D03               	skipz
  1166  0667  2E63               	goto	u1925
  1167  0668  0833               	movf	??_main,w
  1168  0669  00B4               	movwf	??_main+1
  1169  066A  0834               	movf	??_main+1,w
  1170  066B  00BE               	movwf	_mask
  1171  066C                     l1895:
  1172                           
  1173                           ;Probador1.c: 248:                                 incremento++;
  1174  066C  3001               	movlw	1
  1175  066D  00B3               	movwf	??_main
  1176  066E  0833               	movf	??_main,w
  1177  066F  07C0               	addwf	_incremento,f
  1178  0670                     l1897:
  1179                           
  1180                           ;Probador1.c: 250:                             if (incremento == 9) {
  1181  0670  3009               	movlw	9
  1182  0671  0640               	xorwf	_incremento,w
  1183  0672  1D03               	btfss	3,2
  1184  0673  2E75               	goto	u1931
  1185  0674  2E76               	goto	u1930
  1186  0675                     u1931:
  1187  0675  2E3B               	goto	l1885
  1188  0676                     u1930:
  1189  0676                     l1899:
  1190                           
  1191                           ;Probador1.c: 251:                                 puerto = 3;
  1192  0676  3003               	movlw	3
  1193  0677  00B3               	movwf	??_main
  1194  0678  0833               	movf	??_main,w
  1195  0679  00BF               	movwf	_puerto
  1196  067A                     l1901:	
  1197                           ;Probador1.c: 252:                                 break;
  1198                           
  1199                           
  1200                           ;Probador1.c: 256:                     }
  1201  067A  0840               	movf	_incremento,w
  1202  067B  00B3               	movwf	??_main
  1203  067C  0833               	movf	??_main,w
  1204  067D  00B7               	movwf	main@i_207
  1205  067E                     l162:
  1206  067E  0842               	movf	_nro_pin,w
  1207  067F  0237               	subwf	main@i_207,w
  1208  0680  1C03               	skipc
  1209  0681  2E83               	goto	u1941
  1210  0682  2E84               	goto	u1940
  1211  0683                     u1941:
  1212  0683  2E3B               	goto	l1885
  1213  0684                     u1940:
  1214  0684  2F91               	goto	l1991
  1215  0685                     l1903:
  1216                           
  1217                           ;Probador1.c: 261:                 if (prueba == 0) {
  1218  0685  083D               	movf	_prueba,w
  1219  0686  1D03               	btfss	3,2
  1220  0687  2E89               	goto	u1951
  1221  0688  2E8A               	goto	u1950
  1222  0689                     u1951:
  1223  0689  2EA8               	goto	l171
  1224  068A                     u1950:
  1225  068A                     l1905:
  1226                           
  1227                           ;Probador1.c: 262:                     Prueba_sal();
  1228  068A  120A  118A  20A3  120A  118A  	fcall	_Prueba_sal
  1229  068F                     l1907:
  1230                           
  1231                           ;Probador1.c: 264:                         if (RE1 == 1) {
  1232  068F  1283               	bcf	3,5	;RP0=0, select bank0
  1233  0690  1303               	bcf	3,6	;RP1=0, select bank0
  1234  0691  1C89               	btfss	9,1	;volatile
  1235  0692  2E94               	goto	u1961
  1236  0693  2E95               	goto	u1960
  1237  0694                     u1961:
  1238  0694  2E96               	goto	l173
  1239  0695                     u1960:
  1240  0695  2E2C               	goto	l1875
  1241  0696                     l173:	
  1242                           ;Probador1.c: 267:                         }
  1243                           
  1244                           
  1245                           ;Probador1.c: 268:                         if (RE0 == 1) {
  1246  0696  1C09               	btfss	9,0	;volatile
  1247  0697  2E99               	goto	u1971
  1248  0698  2E9A               	goto	u1970
  1249  0699                     u1971:
  1250  0699  2E8F               	goto	l1907
  1251  069A                     u1970:
  1252  069A                     l1911:
  1253                           
  1254                           ;Probador1.c: 269:                             puerto = 4;
  1255  069A  3004               	movlw	4
  1256  069B  00B3               	movwf	??_main
  1257  069C  0833               	movf	??_main,w
  1258  069D  00BF               	movwf	_puerto
  1259                           
  1260                           ;Probador1.c: 270:                             nro_pin = 4;
  1261  069E  3004               	movlw	4
  1262  069F  00B3               	movwf	??_main
  1263  06A0  0833               	movf	??_main,w
  1264  06A1  00C2               	movwf	_nro_pin
  1265  06A2                     l1913:
  1266                           
  1267                           ;Probador1.c: 271:                             porte_sal();
  1268  06A2  120A  118A  2048  120A  118A  	fcall	_porte_sal
  1269                           
  1270                           ;Probador1.c: 272:                             break;
  1271  06A7  2F91               	goto	l1991
  1272  06A8                     l171:
  1273                           
  1274                           ;Probador1.c: 277:                     incremento = 1;
  1275  06A8  01C0               	clrf	_incremento
  1276  06A9  0AC0               	incf	_incremento,f
  1277  06AA                     l1917:
  1278                           
  1279                           ;Probador1.c: 278:                     nro_pin = 9;
  1280  06AA  3009               	movlw	9
  1281  06AB  00B3               	movwf	??_main
  1282  06AC  0833               	movf	??_main,w
  1283  06AD  00C2               	movwf	_nro_pin
  1284  06AE                     l1919:
  1285                           
  1286                           ;Probador1.c: 279:                     mask = 1;
  1287  06AE  01BE               	clrf	_mask
  1288  06AF  0ABE               	incf	_mask,f
  1289  06B0                     l1921:
  1290                           
  1291                           ;Probador1.c: 280:                     for (unsigned char i = 0; i < nro_pin; i = increm
      +                          ento) {
  1292  06B0  01B8               	clrf	main@i_208
  1293  06B1  2EF5               	goto	l178
  1294  06B2                     l1923:
  1295                           
  1296                           ;Probador1.c: 282:                             if (PORTD & mask) {
  1297  06B2  0808               	movf	8,w	;volatile
  1298  06B3  053E               	andwf	_mask,w
  1299  06B4  1903               	btfsc	3,2
  1300  06B5  2EB7               	goto	u1981
  1301  06B6  2EB8               	goto	u1980
  1302  06B7                     u1981:
  1303  06B7  2EE7               	goto	l1935
  1304  06B8                     u1980:
  1305  06B8                     l1925:
  1306                           
  1307                           ;Probador1.c: 283:                                 RE2 = 1;
  1308  06B8  1509               	bsf	9,2	;volatile
  1309  06B9                     l1927:
  1310                           
  1311                           ;Probador1.c: 284:                                 _delay((unsigned long)((300)*(8000000
      +                          UL/4000.0)));
  1312  06B9  3004               	movlw	4
  1313  06BA  1283               	bcf	3,5	;RP0=0, select bank0
  1314  06BB  1303               	bcf	3,6	;RP1=0, select bank0
  1315  06BC  00B5               	movwf	??_main+2
  1316  06BD  300C               	movlw	12
  1317  06BE  00B4               	movwf	??_main+1
  1318  06BF  3033               	movlw	51
  1319  06C0  00B3               	movwf	??_main
  1320  06C1                     u2197:
  1321  06C1  0BB3               	decfsz	??_main,f
  1322  06C2  2EC1               	goto	u2197
  1323  06C3  0BB4               	decfsz	??_main+1,f
  1324  06C4  2EC1               	goto	u2197
  1325  06C5  0BB5               	decfsz	??_main+2,f
  1326  06C6  2EC1               	goto	u2197
  1327  06C7                     l1929:
  1328                           
  1329                           ;Probador1.c: 285:                                 RE2 = 0;
  1330  06C7  1283               	bcf	3,5	;RP0=0, select bank0
  1331  06C8  1303               	bcf	3,6	;RP1=0, select bank0
  1332  06C9  1109               	bcf	9,2	;volatile
  1333                           
  1334                           ;Probador1.c: 286:                                 _delay((unsigned long)((50)*(8000000U
      +                          L/4000.0)));
  1335  06CA  3082               	movlw	130
  1336  06CB  1283               	bcf	3,5	;RP0=0, select bank0
  1337  06CC  1303               	bcf	3,6	;RP1=0, select bank0
  1338  06CD  00B4               	movwf	??_main+1
  1339  06CE  30DD               	movlw	221
  1340  06CF  00B3               	movwf	??_main
  1341  06D0                     u2207:
  1342  06D0  0BB3               	decfsz	??_main,f
  1343  06D1  2ED0               	goto	u2207
  1344  06D2  0BB4               	decfsz	??_main+1,f
  1345  06D3  2ED0               	goto	u2207
  1346  06D4                     l1931:
  1347                           
  1348                           ;Probador1.c: 287:                                 mask = (1 << incremento);
  1349  06D4  3001               	movlw	1
  1350  06D5  1283               	bcf	3,5	;RP0=0, select bank0
  1351  06D6  1303               	bcf	3,6	;RP1=0, select bank0
  1352  06D7  00B3               	movwf	??_main
  1353  06D8  0A40               	incf	_incremento,w
  1354  06D9  2EDC               	goto	u1994
  1355  06DA                     u1995:
  1356  06DA  1003               	clrc
  1357  06DB  0DB3               	rlf	??_main,f
  1358  06DC                     u1994:
  1359  06DC  3EFF               	addlw	-1
  1360  06DD  1D03               	skipz
  1361  06DE  2EDA               	goto	u1995
  1362  06DF  0833               	movf	??_main,w
  1363  06E0  00B4               	movwf	??_main+1
  1364  06E1  0834               	movf	??_main+1,w
  1365  06E2  00BE               	movwf	_mask
  1366  06E3                     l1933:
  1367                           
  1368                           ;Probador1.c: 288:                                 incremento++;
  1369  06E3  3001               	movlw	1
  1370  06E4  00B3               	movwf	??_main
  1371  06E5  0833               	movf	??_main,w
  1372  06E6  07C0               	addwf	_incremento,f
  1373  06E7                     l1935:
  1374                           
  1375                           ;Probador1.c: 290:                             if (incremento == 9) {
  1376  06E7  3009               	movlw	9
  1377  06E8  0640               	xorwf	_incremento,w
  1378  06E9  1D03               	btfss	3,2
  1379  06EA  2EEC               	goto	u2001
  1380  06EB  2EED               	goto	u2000
  1381  06EC                     u2001:
  1382  06EC  2EB2               	goto	l1923
  1383  06ED                     u2000:
  1384  06ED                     l1937:
  1385                           
  1386                           ;Probador1.c: 291:                                 puerto = 4;
  1387  06ED  3004               	movlw	4
  1388  06EE  00B3               	movwf	??_main
  1389  06EF  0833               	movf	??_main,w
  1390  06F0  00BF               	movwf	_puerto
  1391  06F1                     l1939:	
  1392                           ;Probador1.c: 292:                                 break;
  1393                           
  1394                           
  1395                           ;Probador1.c: 296:                     }
  1396  06F1  0840               	movf	_incremento,w
  1397  06F2  00B3               	movwf	??_main
  1398  06F3  0833               	movf	??_main,w
  1399  06F4  00B8               	movwf	main@i_208
  1400  06F5                     l178:
  1401  06F5  0842               	movf	_nro_pin,w
  1402  06F6  0238               	subwf	main@i_208,w
  1403  06F7  1C03               	skipc
  1404  06F8  2EFA               	goto	u2011
  1405  06F9  2EFB               	goto	u2010
  1406  06FA                     u2011:
  1407  06FA  2EB2               	goto	l1923
  1408  06FB                     u2010:
  1409  06FB  2F91               	goto	l1991
  1410  06FC                     l1941:
  1411                           
  1412                           ;Probador1.c: 301:                 if (prueba == 0) {
  1413  06FC  083D               	movf	_prueba,w
  1414  06FD  1D03               	btfss	3,2
  1415  06FE  2F00               	goto	u2021
  1416  06FF  2F01               	goto	u2020
  1417  0700                     u2021:
  1418  0700  2F22               	goto	l187
  1419  0701                     u2020:
  1420  0701                     l1943:
  1421                           
  1422                           ;Probador1.c: 302:                     Prueba_sal();
  1423  0701  120A  118A  20A3  120A  118A  	fcall	_Prueba_sal
  1424  0706                     l1945:
  1425                           
  1426                           ;Probador1.c: 303:                     porte_ent();
  1427  0706  120A  118A  204C  120A  118A  	fcall	_porte_ent
  1428  070B                     l1947:
  1429                           
  1430                           ;Probador1.c: 305:                         if (RE1 == 1) {
  1431  070B  1283               	bcf	3,5	;RP0=0, select bank0
  1432  070C  1303               	bcf	3,6	;RP1=0, select bank0
  1433  070D  1C89               	btfss	9,1	;volatile
  1434  070E  2F10               	goto	u2031
  1435  070F  2F11               	goto	u2030
  1436  0710                     u2031:
  1437  0710  2F16               	goto	l189
  1438  0711                     u2030:
  1439  0711                     l1949:
  1440                           
  1441                           ;Probador1.c: 306:                             puerto = 4;
  1442  0711  3004               	movlw	4
  1443  0712  00B3               	movwf	??_main
  1444  0713  0833               	movf	??_main,w
  1445  0714  00BF               	movwf	_puerto
  1446  0715  2EA2               	goto	l1913
  1447  0716                     l189:	
  1448                           ;Probador1.c: 309:                         }
  1449                           
  1450                           
  1451                           ;Probador1.c: 310:                         if (RE0 == 1) {
  1452  0716  1C09               	btfss	9,0	;volatile
  1453  0717  2F19               	goto	u2041
  1454  0718  2F1A               	goto	u2040
  1455  0719                     u2041:
  1456  0719  2F0B               	goto	l1947
  1457  071A                     u2040:
  1458  071A                     l1953:
  1459                           
  1460                           ;Probador1.c: 311:                             puerto = 0;
  1461  071A  01BF               	clrf	_puerto
  1462  071B                     l1955:
  1463                           
  1464                           ;Probador1.c: 312:                             prueba = 1;
  1465  071B  01BD               	clrf	_prueba
  1466  071C  0ABD               	incf	_prueba,f
  1467  071D                     l1957:
  1468                           
  1469                           ;Probador1.c: 313:                             nro_pin = 7;
  1470  071D  3007               	movlw	7
  1471  071E  00B3               	movwf	??_main
  1472  071F  0833               	movf	??_main,w
  1473  0720  00C2               	movwf	_nro_pin
  1474                           
  1475                           ;Probador1.c: 314:                             break;
  1476  0721  2F91               	goto	l1991
  1477  0722                     l187:
  1478                           
  1479                           ;Probador1.c: 319:                     incremento = 1;
  1480  0722  01C0               	clrf	_incremento
  1481  0723  0AC0               	incf	_incremento,f
  1482  0724                     l1961:
  1483                           
  1484                           ;Probador1.c: 320:                     nro_pin = 3;
  1485  0724  3003               	movlw	3
  1486  0725  00B3               	movwf	??_main
  1487  0726  0833               	movf	??_main,w
  1488  0727  00C2               	movwf	_nro_pin
  1489  0728                     l1963:
  1490                           
  1491                           ;Probador1.c: 321:                     mask = 1;
  1492  0728  01BE               	clrf	_mask
  1493  0729  0ABE               	incf	_mask,f
  1494  072A                     l1965:
  1495                           
  1496                           ;Probador1.c: 322:                     for (unsigned char i = 0; i < nro_pin; i = increm
      +                          ento) {
  1497  072A  01B9               	clrf	main@i_209
  1498  072B  2F71               	goto	l194
  1499  072C                     l1967:
  1500                           
  1501                           ;Probador1.c: 324:                             if (PORTE & mask) {
  1502  072C  0809               	movf	9,w	;volatile
  1503  072D  053E               	andwf	_mask,w
  1504  072E  1903               	btfsc	3,2
  1505  072F  2F31               	goto	u2051
  1506  0730  2F32               	goto	u2050
  1507  0731                     u2051:
  1508  0731  2F61               	goto	l1979
  1509  0732                     u2050:
  1510  0732                     l1969:
  1511                           
  1512                           ;Probador1.c: 325:                                 RE2 = 1;
  1513  0732  1509               	bsf	9,2	;volatile
  1514  0733                     l1971:
  1515                           
  1516                           ;Probador1.c: 326:                                 _delay((unsigned long)((300)*(8000000
      +                          UL/4000.0)));
  1517  0733  3004               	movlw	4
  1518  0734  1283               	bcf	3,5	;RP0=0, select bank0
  1519  0735  1303               	bcf	3,6	;RP1=0, select bank0
  1520  0736  00B5               	movwf	??_main+2
  1521  0737  300C               	movlw	12
  1522  0738  00B4               	movwf	??_main+1
  1523  0739  3033               	movlw	51
  1524  073A  00B3               	movwf	??_main
  1525  073B                     u2217:
  1526  073B  0BB3               	decfsz	??_main,f
  1527  073C  2F3B               	goto	u2217
  1528  073D  0BB4               	decfsz	??_main+1,f
  1529  073E  2F3B               	goto	u2217
  1530  073F  0BB5               	decfsz	??_main+2,f
  1531  0740  2F3B               	goto	u2217
  1532  0741                     l1973:
  1533                           
  1534                           ;Probador1.c: 327:                                 RE2 = 0;
  1535  0741  1283               	bcf	3,5	;RP0=0, select bank0
  1536  0742  1303               	bcf	3,6	;RP1=0, select bank0
  1537  0743  1109               	bcf	9,2	;volatile
  1538                           
  1539                           ;Probador1.c: 328:                                 _delay((unsigned long)((50)*(8000000U
      +                          L/4000.0)));
  1540  0744  3082               	movlw	130
  1541  0745  1283               	bcf	3,5	;RP0=0, select bank0
  1542  0746  1303               	bcf	3,6	;RP1=0, select bank0
  1543  0747  00B4               	movwf	??_main+1
  1544  0748  30DD               	movlw	221
  1545  0749  00B3               	movwf	??_main
  1546  074A                     u2227:
  1547  074A  0BB3               	decfsz	??_main,f
  1548  074B  2F4A               	goto	u2227
  1549  074C  0BB4               	decfsz	??_main+1,f
  1550  074D  2F4A               	goto	u2227
  1551  074E                     l1975:
  1552                           
  1553                           ;Probador1.c: 329:                                 mask = (1 << incremento);
  1554  074E  3001               	movlw	1
  1555  074F  1283               	bcf	3,5	;RP0=0, select bank0
  1556  0750  1303               	bcf	3,6	;RP1=0, select bank0
  1557  0751  00B3               	movwf	??_main
  1558  0752  0A40               	incf	_incremento,w
  1559  0753  2F56               	goto	u2064
  1560  0754                     u2065:
  1561  0754  1003               	clrc
  1562  0755  0DB3               	rlf	??_main,f
  1563  0756                     u2064:
  1564  0756  3EFF               	addlw	-1
  1565  0757  1D03               	skipz
  1566  0758  2F54               	goto	u2065
  1567  0759  0833               	movf	??_main,w
  1568  075A  00B4               	movwf	??_main+1
  1569  075B  0834               	movf	??_main+1,w
  1570  075C  00BE               	movwf	_mask
  1571  075D                     l1977:
  1572                           
  1573                           ;Probador1.c: 330:                                 incremento++;
  1574  075D  3001               	movlw	1
  1575  075E  00B3               	movwf	??_main
  1576  075F  0833               	movf	??_main,w
  1577  0760  07C0               	addwf	_incremento,f
  1578  0761                     l1979:
  1579                           
  1580                           ;Probador1.c: 332:                             if (incremento == 4) {
  1581  0761  3004               	movlw	4
  1582  0762  0640               	xorwf	_incremento,w
  1583  0763  1D03               	btfss	3,2
  1584  0764  2F66               	goto	u2071
  1585  0765  2F67               	goto	u2070
  1586  0766                     u2071:
  1587  0766  2F2C               	goto	l1967
  1588  0767                     u2070:
  1589  0767                     l1981:
  1590                           
  1591                           ;Probador1.c: 333:                                 puerto = 0;
  1592  0767  01BF               	clrf	_puerto
  1593  0768                     l1983:
  1594                           
  1595                           ;Probador1.c: 334:                                 nro_pin = 7;
  1596  0768  3007               	movlw	7
  1597  0769  00B3               	movwf	??_main
  1598  076A  0833               	movf	??_main,w
  1599  076B  00C2               	movwf	_nro_pin
  1600  076C                     l1985:
  1601                           
  1602                           ;Probador1.c: 335:                                 prueba = 2;
  1603  076C  3002               	movlw	2
  1604  076D  00B3               	movwf	??_main
  1605  076E  0833               	movf	??_main,w
  1606  076F  00BD               	movwf	_prueba
  1607                           
  1608                           ;Probador1.c: 336:                                 break;
  1609  0770  2F91               	goto	l1991
  1610  0771                     l194:
  1611  0771  0842               	movf	_nro_pin,w
  1612  0772  0239               	subwf	main@i_209,w
  1613  0773  1C03               	skipc
  1614  0774  2F76               	goto	u2081
  1615  0775  2F77               	goto	u2080
  1616  0776                     u2081:
  1617  0776  2F2C               	goto	l1967
  1618  0777                     u2080:
  1619  0777  2F91               	goto	l1991
  1620  0778                     l1989:
  1621  0778  083F               	movf	_puerto,w
  1622  0779  00B3               	movwf	??_main
  1623  077A  01B4               	clrf	??_main+1
  1624                           
  1625                           ; Switch on 2 bytes has been partitioned into a top level switch of size 1, and 1 sub-sw
      +                          itches
  1626                           ; Switch size 1, requested type "simple"
  1627                           ; Number of cases is 1, Range of values is 0 to 0
  1628                           ; switch strategies available:
  1629                           ; Name         Instructions Cycles
  1630                           ; simple_byte            4     3 (average)
  1631                           ; direct_byte           11     8 (fixed)
  1632                           ; jumptable            260     6 (fixed)
  1633                           ;	Chosen strategy is simple_byte
  1634  077B  0834               	movf	??_main+1,w
  1635  077C  3A00               	xorlw	0	; case 0
  1636  077D  1903               	skipnz
  1637  077E  2F80               	goto	l2083
  1638  077F  2F91               	goto	l1991
  1639  0780                     l2083:
  1640                           
  1641                           ; Switch size 1, requested type "simple"
  1642                           ; Number of cases is 5, Range of values is 0 to 4
  1643                           ; switch strategies available:
  1644                           ; Name         Instructions Cycles
  1645                           ; simple_byte           16     9 (average)
  1646                           ; direct_byte           23     8 (fixed)
  1647                           ; jumptable            260     6 (fixed)
  1648                           ;	Chosen strategy is simple_byte
  1649  0780  0833               	movf	??_main,w
  1650  0781  3A00               	xorlw	0	; case 0
  1651  0782  1903               	skipnz
  1652  0783  2D32               	goto	l1789
  1653  0784  3A01               	xorlw	1	; case 1
  1654  0785  1903               	skipnz
  1655  0786  2DA9               	goto	l1831
  1656  0787  3A03               	xorlw	3	; case 2
  1657  0788  1903               	skipnz
  1658  0789  2E17               	goto	l1867
  1659  078A  3A01               	xorlw	1	; case 3
  1660  078B  1903               	skipnz
  1661  078C  2E85               	goto	l1903
  1662  078D  3A07               	xorlw	7	; case 4
  1663  078E  1903               	skipnz
  1664  078F  2EFC               	goto	l1941
  1665  0790  2F91               	goto	l1991
  1666  0791                     l1991:
  1667                           
  1668                           ;Probador1.c: 345:         if (prueba == 2){
  1669  0791  3002               	movlw	2
  1670  0792  1283               	bcf	3,5	;RP0=0, select bank0
  1671  0793  1303               	bcf	3,6	;RP1=0, select bank0
  1672  0794  063D               	xorwf	_prueba,w
  1673  0795  1D03               	btfss	3,2
  1674  0796  2F98               	goto	u2091
  1675  0797  2F99               	goto	u2090
  1676  0798                     u2091:
  1677  0798  2FA4               	goto	l1997
  1678  0799                     u2090:
  1679  0799                     l1993:
  1680                           
  1681                           ;Probador1.c: 346:             ADC();
  1682  0799  120A  118A  23E8  120A  118A  	fcall	_ADC
  1683  079E                     l1995:
  1684                           
  1685                           ;Probador1.c: 347:             prueba = 3;
  1686  079E  3003               	movlw	3
  1687  079F  1283               	bcf	3,5	;RP0=0, select bank0
  1688  07A0  1303               	bcf	3,6	;RP1=0, select bank0
  1689  07A1  00B3               	movwf	??_main
  1690  07A2  0833               	movf	??_main,w
  1691  07A3  00BD               	movwf	_prueba
  1692  07A4                     l1997:
  1693                           
  1694                           ;Probador1.c: 350:         if (prueba == 3) {
  1695  07A4  3003               	movlw	3
  1696  07A5  063D               	xorwf	_prueba,w
  1697  07A6  1D03               	btfss	3,2
  1698  07A7  2FA9               	goto	u2101
  1699  07A8  2FAA               	goto	u2100
  1700  07A9                     u2101:
  1701  07A9  2D2B               	goto	l116
  1702  07AA                     u2100:
  1703  07AA                     l1999:
  1704                           
  1705                           ;Probador1.c: 351:             port_conf_r1();
  1706  07AA  120A  118A  2082  120A  118A  	fcall	_port_conf_r1
  1707  07AF                     l2001:
  1708                           
  1709                           ;Probador1.c: 352:             porte_sal();
  1710  07AF  120A  118A  2048  120A  118A  	fcall	_porte_sal
  1711                           
  1712                           ;Probador1.c: 353:             for (unsigned char i; i < 3; i++) {
  1713  07B4  3003               	movlw	3
  1714  07B5  1283               	bcf	3,5	;RP0=0, select bank0
  1715  07B6  1303               	bcf	3,6	;RP1=0, select bank0
  1716  07B7  023A               	subwf	main@i_211,w
  1717  07B8  1C03               	skipc
  1718  07B9  2FBB               	goto	u2111
  1719  07BA  2FBC               	goto	u2110
  1720  07BB                     u2111:
  1721  07BB  2FBD               	goto	l2005
  1722  07BC                     u2110:
  1723  07BC  2FEA               	goto	l2015
  1724  07BD                     l2005:
  1725                           
  1726                           ;Probador1.c: 354:                 PORTE = 0xFF;
  1727  07BD  30FF               	movlw	255
  1728  07BE  0089               	movwf	9	;volatile
  1729                           
  1730                           ;Probador1.c: 355:                 _delay((unsigned long)((1000)*(8000000UL/4000.0)));
  1731  07BF  300B               	movlw	11
  1732  07C0  1283               	bcf	3,5	;RP0=0, select bank0
  1733  07C1  1303               	bcf	3,6	;RP1=0, select bank0
  1734  07C2  00B5               	movwf	??_main+2
  1735  07C3  3026               	movlw	38
  1736  07C4  00B4               	movwf	??_main+1
  1737  07C5  305D               	movlw	93
  1738  07C6  00B3               	movwf	??_main
  1739  07C7                     u2237:
  1740  07C7  0BB3               	decfsz	??_main,f
  1741  07C8  2FC7               	goto	u2237
  1742  07C9  0BB4               	decfsz	??_main+1,f
  1743  07CA  2FC7               	goto	u2237
  1744  07CB  0BB5               	decfsz	??_main+2,f
  1745  07CC  2FC7               	goto	u2237
  1746  07CD                     l2007:
  1747                           
  1748                           ;Probador1.c: 356:                 PORTE = 0;
  1749  07CD  1283               	bcf	3,5	;RP0=0, select bank0
  1750  07CE  1303               	bcf	3,6	;RP1=0, select bank0
  1751  07CF  0189               	clrf	9	;volatile
  1752  07D0                     l2009:
  1753                           
  1754                           ;Probador1.c: 357:                 _delay((unsigned long)((1000)*(8000000UL/4000.0)));
  1755  07D0  300B               	movlw	11
  1756  07D1  1283               	bcf	3,5	;RP0=0, select bank0
  1757  07D2  1303               	bcf	3,6	;RP1=0, select bank0
  1758  07D3  00B5               	movwf	??_main+2
  1759  07D4  3026               	movlw	38
  1760  07D5  00B4               	movwf	??_main+1
  1761  07D6  305D               	movlw	93
  1762  07D7  00B3               	movwf	??_main
  1763  07D8                     u2247:
  1764  07D8  0BB3               	decfsz	??_main,f
  1765  07D9  2FD8               	goto	u2247
  1766  07DA  0BB4               	decfsz	??_main+1,f
  1767  07DB  2FD8               	goto	u2247
  1768  07DC  0BB5               	decfsz	??_main+2,f
  1769  07DD  2FD8               	goto	u2247
  1770  07DE                     l2011:
  1771                           
  1772                           ;Probador1.c: 359:             }
  1773  07DE  3001               	movlw	1
  1774  07DF  1283               	bcf	3,5	;RP0=0, select bank0
  1775  07E0  1303               	bcf	3,6	;RP1=0, select bank0
  1776  07E1  00B3               	movwf	??_main
  1777  07E2  0833               	movf	??_main,w
  1778  07E3  07BA               	addwf	main@i_211,f
  1779  07E4                     l2013:
  1780  07E4  3003               	movlw	3
  1781  07E5  023A               	subwf	main@i_211,w
  1782  07E6  1C03               	skipc
  1783  07E7  2FE9               	goto	u2121
  1784  07E8  2FEA               	goto	u2120
  1785  07E9                     u2121:
  1786  07E9  2FBD               	goto	l2005
  1787  07EA                     u2120:
  1788  07EA                     l2015:
  1789                           
  1790                           ;Probador1.c: 360:             prueba = 0;
  1791  07EA  01BD               	clrf	_prueba
  1792                           
  1793                           ;Probador1.c: 361:             xx = 0;
  1794  07EB  01BC               	clrf	_xx
  1795  07EC  2D2B               	goto	l116
  1796  07ED  120A  118A  2800   	ljmp	start
  1797  07F0                     __end_of_main:
  1798                           
  1799                           	psect	text1
  1800  0048                     __ptext1:	
  1801 ;; *************** function _porte_sal *****************
  1802 ;; Defined at:
  1803 ;;		line 391 in file "Probador1.c"
  1804 ;; Parameters:    Size  Location     Type
  1805 ;;		None
  1806 ;; Auto vars:     Size  Location     Type
  1807 ;;		None
  1808 ;; Return value:  Size  Location     Type
  1809 ;;                  1    wreg      void 
  1810 ;; Registers used:
  1811 ;;		status,2
  1812 ;; Tracked objects:
  1813 ;;		On entry : 0/0
  1814 ;;		On exit  : 0/0
  1815 ;;		Unchanged: 0/0
  1816 ;; Data sizes:     COMMON   BANK0   BANK1   BANK3   BANK2
  1817 ;;      Params:         0       0       0       0       0
  1818 ;;      Locals:         0       0       0       0       0
  1819 ;;      Temps:          0       0       0       0       0
  1820 ;;      Totals:         0       0       0       0       0
  1821 ;;Total ram usage:        0 bytes
  1822 ;; Hardware stack levels used: 1
  1823 ;; This function calls:
  1824 ;;		Nothing
  1825 ;; This function is called by:
  1826 ;;		_main
  1827 ;; This function uses a non-reentrant model
  1828 ;;
  1829                           
  1830  0048                     _porte_sal:	
  1831                           ;psect for function _porte_sal
  1832                           
  1833  0048                     l1777:	
  1834                           ;incstack = 0
  1835                           ; Regs used in _porte_sal: [status,2]
  1836                           
  1837                           
  1838                           ;Probador1.c: 392:     TRISE = 0b00000000;
  1839  0048  1683               	bsf	3,5	;RP0=1, select bank1
  1840  0049  1303               	bcf	3,6	;RP1=0, select bank1
  1841  004A  0189               	clrf	9	;volatile
  1842  004B                     l220:
  1843  004B  0008               	return
  1844  004C                     __end_of_porte_sal:
  1845                           
  1846                           	psect	text2
  1847  004C                     __ptext2:	
  1848 ;; *************** function _porte_ent *****************
  1849 ;; Defined at:
  1850 ;;		line 387 in file "Probador1.c"
  1851 ;; Parameters:    Size  Location     Type
  1852 ;;		None
  1853 ;; Auto vars:     Size  Location     Type
  1854 ;;		None
  1855 ;; Return value:  Size  Location     Type
  1856 ;;                  1    wreg      void 
  1857 ;; Registers used:
  1858 ;;		wreg
  1859 ;; Tracked objects:
  1860 ;;		On entry : 0/0
  1861 ;;		On exit  : 0/0
  1862 ;;		Unchanged: 0/0
  1863 ;; Data sizes:     COMMON   BANK0   BANK1   BANK3   BANK2
  1864 ;;      Params:         0       0       0       0       0
  1865 ;;      Locals:         0       0       0       0       0
  1866 ;;      Temps:          0       0       0       0       0
  1867 ;;      Totals:         0       0       0       0       0
  1868 ;;Total ram usage:        0 bytes
  1869 ;; Hardware stack levels used: 1
  1870 ;; This function calls:
  1871 ;;		Nothing
  1872 ;; This function is called by:
  1873 ;;		_main
  1874 ;; This function uses a non-reentrant model
  1875 ;;
  1876                           
  1877  004C                     _porte_ent:	
  1878                           ;psect for function _porte_ent
  1879                           
  1880  004C                     l1763:	
  1881                           ;incstack = 0
  1882                           ; Regs used in _porte_ent: [wreg]
  1883                           
  1884                           
  1885                           ;Probador1.c: 388:     TRISE = 0b00000011;
  1886  004C  3003               	movlw	3
  1887  004D  1683               	bsf	3,5	;RP0=1, select bank1
  1888  004E  1303               	bcf	3,6	;RP1=0, select bank1
  1889  004F  0089               	movwf	9	;volatile
  1890  0050                     l217:
  1891  0050  0008               	return
  1892  0051                     __end_of_porte_ent:
  1893                           
  1894                           	psect	text3
  1895  0065                     __ptext3:	
  1896 ;; *************** function _port_conf_r2 *****************
  1897 ;; Defined at:
  1898 ;;		line 367 in file "Probador1.c"
  1899 ;; Parameters:    Size  Location     Type
  1900 ;;		None
  1901 ;; Auto vars:     Size  Location     Type
  1902 ;;		None
  1903 ;; Return value:  Size  Location     Type
  1904 ;;                  1    wreg      void 
  1905 ;; Registers used:
  1906 ;;		wreg, status,2
  1907 ;; Tracked objects:
  1908 ;;		On entry : 0/0
  1909 ;;		On exit  : 0/0
  1910 ;;		Unchanged: 0/0
  1911 ;; Data sizes:     COMMON   BANK0   BANK1   BANK3   BANK2
  1912 ;;      Params:         0       0       0       0       0
  1913 ;;      Locals:         0       0       0       0       0
  1914 ;;      Temps:          0       0       0       0       0
  1915 ;;      Totals:         0       0       0       0       0
  1916 ;;Total ram usage:        0 bytes
  1917 ;; Hardware stack levels used: 1
  1918 ;; This function calls:
  1919 ;;		Nothing
  1920 ;; This function is called by:
  1921 ;;		_main
  1922 ;; This function uses a non-reentrant model
  1923 ;;
  1924                           
  1925  0065                     _port_conf_r2:	
  1926                           ;psect for function _port_conf_r2
  1927                           
  1928  0065                     l1773:	
  1929                           ;incstack = 0
  1930                           ; Regs used in _port_conf_r2: [wreg+status,2]
  1931                           
  1932                           
  1933                           ;Probador1.c: 368:     TRISA = 0xFF;
  1934  0065  30FF               	movlw	255
  1935  0066  1683               	bsf	3,5	;RP0=1, select bank1
  1936  0067  1303               	bcf	3,6	;RP1=0, select bank1
  1937  0068  0085               	movwf	5	;volatile
  1938                           
  1939                           ;Probador1.c: 369:     TRISB = 0xFF;
  1940  0069  30FF               	movlw	255
  1941  006A  0086               	movwf	6	;volatile
  1942                           
  1943                           ;Probador1.c: 370:     TRISC = 0xFF;
  1944  006B  30FF               	movlw	255
  1945  006C  0087               	movwf	7	;volatile
  1946                           
  1947                           ;Probador1.c: 371:     TRISD = 0xFF;
  1948  006D  30FF               	movlw	255
  1949  006E  0088               	movwf	8	;volatile
  1950  006F                     l1775:
  1951                           
  1952                           ;Probador1.c: 372:     PORTE = 0x00;
  1953  006F  1283               	bcf	3,5	;RP0=0, select bank0
  1954  0070  1303               	bcf	3,6	;RP1=0, select bank0
  1955  0071  0189               	clrf	9	;volatile
  1956  0072                     l211:
  1957  0072  0008               	return
  1958  0073                     __end_of_port_conf_r2:
  1959                           
  1960                           	psect	text4
  1961  0082                     __ptext4:	
  1962 ;; *************** function _port_conf_r1 *****************
  1963 ;; Defined at:
  1964 ;;		line 375 in file "Probador1.c"
  1965 ;; Parameters:    Size  Location     Type
  1966 ;;		None
  1967 ;; Auto vars:     Size  Location     Type
  1968 ;;		None
  1969 ;; Return value:  Size  Location     Type
  1970 ;;                  1    wreg      void 
  1971 ;; Registers used:
  1972 ;;		wreg, status,2
  1973 ;; Tracked objects:
  1974 ;;		On entry : 0/0
  1975 ;;		On exit  : 0/0
  1976 ;;		Unchanged: 0/0
  1977 ;; Data sizes:     COMMON   BANK0   BANK1   BANK3   BANK2
  1978 ;;      Params:         0       0       0       0       0
  1979 ;;      Locals:         0       0       0       0       0
  1980 ;;      Temps:          0       0       0       0       0
  1981 ;;      Totals:         0       0       0       0       0
  1982 ;;Total ram usage:        0 bytes
  1983 ;; Hardware stack levels used: 1
  1984 ;; This function calls:
  1985 ;;		Nothing
  1986 ;; This function is called by:
  1987 ;;		_main
  1988 ;; This function uses a non-reentrant model
  1989 ;;
  1990                           
  1991  0082                     _port_conf_r1:	
  1992                           ;psect for function _port_conf_r1
  1993                           
  1994  0082                     l1751:	
  1995                           ;incstack = 0
  1996                           ; Regs used in _port_conf_r1: [wreg+status,2]
  1997                           
  1998                           
  1999                           ;Probador1.c: 376:     TRISA = 0b00000000;
  2000  0082  1683               	bsf	3,5	;RP0=1, select bank1
  2001  0083  1303               	bcf	3,6	;RP1=0, select bank1
  2002  0084  0185               	clrf	5	;volatile
  2003                           
  2004                           ;Probador1.c: 377:     TRISB = 0b00000000;
  2005  0085  0186               	clrf	6	;volatile
  2006                           
  2007                           ;Probador1.c: 378:     TRISC = 0b00000000;
  2008  0086  0187               	clrf	7	;volatile
  2009                           
  2010                           ;Probador1.c: 379:     TRISD = 0b00000000;
  2011  0087  0188               	clrf	8	;volatile
  2012  0088                     l1753:
  2013                           
  2014                           ;Probador1.c: 380:     ADCON1 = 0b00000111;
  2015  0088  3007               	movlw	7
  2016  0089  009F               	movwf	31	;volatile
  2017  008A                     l1755:
  2018                           
  2019                           ;Probador1.c: 381:     PORTB = 0;
  2020  008A  1283               	bcf	3,5	;RP0=0, select bank0
  2021  008B  1303               	bcf	3,6	;RP1=0, select bank0
  2022  008C  0186               	clrf	6	;volatile
  2023  008D                     l1757:
  2024                           
  2025                           ;Probador1.c: 382:     PORTC = 0;
  2026  008D  0187               	clrf	7	;volatile
  2027  008E                     l1759:
  2028                           
  2029                           ;Probador1.c: 383:     PORTD = 0;
  2030  008E  0188               	clrf	8	;volatile
  2031  008F                     l1761:
  2032                           
  2033                           ;Probador1.c: 384:     PORTE = 0;
  2034  008F  0189               	clrf	9	;volatile
  2035  0090                     l214:
  2036  0090  0008               	return
  2037  0091                     __end_of_port_conf_r1:
  2038                           
  2039                           	psect	text5
  2040  00A3                     __ptext5:	
  2041 ;; *************** function _Prueba_sal *****************
  2042 ;; Defined at:
  2043 ;;		line 395 in file "Probador1.c"
  2044 ;; Parameters:    Size  Location     Type
  2045 ;;		None
  2046 ;; Auto vars:     Size  Location     Type
  2047 ;;  i               1    5[COMMON] unsigned char 
  2048 ;; Return value:  Size  Location     Type
  2049 ;;                  1    wreg      void 
  2050 ;; Registers used:
  2051 ;;		wreg, fsr0l, fsr0h, status,2, status,0, pclath, cstack
  2052 ;; Tracked objects:
  2053 ;;		On entry : 0/0
  2054 ;;		On exit  : 0/0
  2055 ;;		Unchanged: 0/0
  2056 ;; Data sizes:     COMMON   BANK0   BANK1   BANK3   BANK2
  2057 ;;      Params:         0       0       0       0       0
  2058 ;;      Locals:         1       0       0       0       0
  2059 ;;      Temps:          1       0       0       0       0
  2060 ;;      Totals:         2       0       0       0       0
  2061 ;;Total ram usage:        2 bytes
  2062 ;; Hardware stack levels used: 1
  2063 ;; Hardware stack levels required when called: 1
  2064 ;; This function calls:
  2065 ;;		_salidas
  2066 ;; This function is called by:
  2067 ;;		_main
  2068 ;; This function uses a non-reentrant model
  2069 ;;
  2070                           
  2071  00A3                     _Prueba_sal:	
  2072                           ;psect for function _Prueba_sal
  2073                           
  2074  00A3                     l1765:	
  2075                           ;incstack = 0
  2076                           ; Regs used in _Prueba_sal: [wreg-fsr0h+status,2+status,0+pclath+cstack]
  2077                           
  2078                           
  2079                           ;Probador1.c: 396:     for (unsigned char i = 0; i < nro_pin; i++) {
  2080  00A3  01F5               	clrf	Prueba_sal@i
  2081  00A4  28AF               	goto	l1771
  2082  00A5                     l1767:
  2083                           
  2084                           ;Probador1.c: 397:         salidas(i);
  2085  00A5  0875               	movf	Prueba_sal@i,w
  2086  00A6  120A  118A  2161  120A  118A  	fcall	_salidas
  2087  00AB                     l1769:
  2088                           
  2089                           ;Probador1.c: 398:     }
  2090  00AB  3001               	movlw	1
  2091  00AC  00F4               	movwf	??_Prueba_sal
  2092  00AD  0874               	movf	??_Prueba_sal,w
  2093  00AE  07F5               	addwf	Prueba_sal@i,f
  2094  00AF                     l1771:
  2095  00AF  1283               	bcf	3,5	;RP0=0, select bank0
  2096  00B0  1303               	bcf	3,6	;RP1=0, select bank0
  2097  00B1  0842               	movf	_nro_pin,w
  2098  00B2  0275               	subwf	Prueba_sal@i,w
  2099  00B3  1C03               	skipc
  2100  00B4  28B6               	goto	u1711
  2101  00B5  28B7               	goto	u1710
  2102  00B6                     u1711:
  2103  00B6  28A5               	goto	l1767
  2104  00B7                     u1710:
  2105  00B7                     l226:
  2106  00B7  0008               	return
  2107  00B8                     __end_of_Prueba_sal:
  2108                           
  2109                           	psect	text6
  2110  0161                     __ptext6:	
  2111 ;; *************** function _salidas *****************
  2112 ;; Defined at:
  2113 ;;		line 401 in file "Probador1.c"
  2114 ;; Parameters:    Size  Location     Type
  2115 ;;  i               1    wreg     unsigned char 
  2116 ;; Auto vars:     Size  Location     Type
  2117 ;;  i               1    3[COMMON] unsigned char 
  2118 ;; Return value:  Size  Location     Type
  2119 ;;                  1    wreg      void 
  2120 ;; Registers used:
  2121 ;;		wreg, fsr0l, fsr0h, status,2, status,0
  2122 ;; Tracked objects:
  2123 ;;		On entry : 0/0
  2124 ;;		On exit  : 0/0
  2125 ;;		Unchanged: 0/0
  2126 ;; Data sizes:     COMMON   BANK0   BANK1   BANK3   BANK2
  2127 ;;      Params:         0       0       0       0       0
  2128 ;;      Locals:         1       0       0       0       0
  2129 ;;      Temps:          3       0       0       0       0
  2130 ;;      Totals:         4       0       0       0       0
  2131 ;;Total ram usage:        4 bytes
  2132 ;; Hardware stack levels used: 1
  2133 ;; This function calls:
  2134 ;;		Nothing
  2135 ;; This function is called by:
  2136 ;;		_Prueba_sal
  2137 ;; This function uses a non-reentrant model
  2138 ;;
  2139                           
  2140  0161                     _salidas:	
  2141                           ;psect for function _salidas
  2142                           
  2143                           
  2144                           ;incstack = 0
  2145                           ; Regs used in _salidas: [wreg-fsr0h+status,2+status,0]
  2146                           ;salidas@i stored from wreg
  2147  0161  00F3               	movwf	salidas@i
  2148  0162                     l1609:
  2149                           
  2150                           ;Probador1.c: 402:     switch (puerto) {
  2151  0162  29AB               	goto	l1633
  2152  0163                     l1611:
  2153                           
  2154                           ;Probador1.c: 404:             PORTA = (1 << i);
  2155  0163  3001               	movlw	1
  2156  0164  00F0               	movwf	??_salidas
  2157  0165  0A73               	incf	salidas@i,w
  2158  0166  2969               	goto	u1284
  2159  0167                     u1285:
  2160  0167  1003               	clrc
  2161  0168  0DF0               	rlf	??_salidas,f
  2162  0169                     u1284:
  2163  0169  3EFF               	addlw	-1
  2164  016A  1D03               	skipz
  2165  016B  2967               	goto	u1285
  2166  016C  0870               	movf	??_salidas,w
  2167  016D  0085               	movwf	5	;volatile
  2168  016E                     l1613:
  2169                           
  2170                           ;Probador1.c: 405:             _delay((unsigned long)((150)*(8000000UL/4000.0)));
  2171  016E  3002               	movlw	2
  2172  016F  00F2               	movwf	??_salidas+2
  2173  0170  3086               	movlw	134
  2174  0171  00F1               	movwf	??_salidas+1
  2175  0172  3099               	movlw	153
  2176  0173  00F0               	movwf	??_salidas
  2177  0174                     u2257:
  2178  0174  0BF0               	decfsz	??_salidas,f
  2179  0175  2974               	goto	u2257
  2180  0176  0BF1               	decfsz	??_salidas+1,f
  2181  0177  2974               	goto	u2257
  2182  0178  0BF2               	decfsz	??_salidas+2,f
  2183  0179  2974               	goto	u2257
  2184                           
  2185                           ;Probador1.c: 406:             break;
  2186  017A  29C6               	goto	l236
  2187  017B                     l1615:
  2188                           
  2189                           ;Probador1.c: 408:             PORTB = (1 << i);
  2190  017B  3001               	movlw	1
  2191  017C  00F0               	movwf	??_salidas
  2192  017D  0A73               	incf	salidas@i,w
  2193  017E  2981               	goto	u1294
  2194  017F                     u1295:
  2195  017F  1003               	clrc
  2196  0180  0DF0               	rlf	??_salidas,f
  2197  0181                     u1294:
  2198  0181  3EFF               	addlw	-1
  2199  0182  1D03               	skipz
  2200  0183  297F               	goto	u1295
  2201  0184  0870               	movf	??_salidas,w
  2202  0185  0086               	movwf	6	;volatile
  2203  0186  296E               	goto	l1613
  2204  0187                     l1619:
  2205                           
  2206                           ;Probador1.c: 412:             PORTC = (1 << i);
  2207  0187  3001               	movlw	1
  2208  0188  00F0               	movwf	??_salidas
  2209  0189  0A73               	incf	salidas@i,w
  2210  018A  298D               	goto	u1304
  2211  018B                     u1305:
  2212  018B  1003               	clrc
  2213  018C  0DF0               	rlf	??_salidas,f
  2214  018D                     u1304:
  2215  018D  3EFF               	addlw	-1
  2216  018E  1D03               	skipz
  2217  018F  298B               	goto	u1305
  2218  0190  0870               	movf	??_salidas,w
  2219  0191  0087               	movwf	7	;volatile
  2220  0192  296E               	goto	l1613
  2221  0193                     l1623:
  2222                           
  2223                           ;Probador1.c: 416:             PORTD = (1 << i);
  2224  0193  3001               	movlw	1
  2225  0194  00F0               	movwf	??_salidas
  2226  0195  0A73               	incf	salidas@i,w
  2227  0196  2999               	goto	u1314
  2228  0197                     u1315:
  2229  0197  1003               	clrc
  2230  0198  0DF0               	rlf	??_salidas,f
  2231  0199                     u1314:
  2232  0199  3EFF               	addlw	-1
  2233  019A  1D03               	skipz
  2234  019B  2997               	goto	u1315
  2235  019C  0870               	movf	??_salidas,w
  2236  019D  0088               	movwf	8	;volatile
  2237  019E  296E               	goto	l1613
  2238  019F                     l1627:
  2239                           
  2240                           ;Probador1.c: 420:             PORTE = (1 << i);
  2241  019F  3001               	movlw	1
  2242  01A0  00F0               	movwf	??_salidas
  2243  01A1  0A73               	incf	salidas@i,w
  2244  01A2  29A5               	goto	u1324
  2245  01A3                     u1325:
  2246  01A3  1003               	clrc
  2247  01A4  0DF0               	rlf	??_salidas,f
  2248  01A5                     u1324:
  2249  01A5  3EFF               	addlw	-1
  2250  01A6  1D03               	skipz
  2251  01A7  29A3               	goto	u1325
  2252  01A8  0870               	movf	??_salidas,w
  2253  01A9  0089               	movwf	9	;volatile
  2254  01AA  296E               	goto	l1613
  2255  01AB                     l1633:
  2256  01AB  1283               	bcf	3,5	;RP0=0, select bank0
  2257  01AC  1303               	bcf	3,6	;RP1=0, select bank0
  2258  01AD  083F               	movf	_puerto,w
  2259  01AE  00F0               	movwf	??_salidas
  2260  01AF  01F1               	clrf	??_salidas+1
  2261                           
  2262                           ; Switch on 2 bytes has been partitioned into a top level switch of size 1, and 1 sub-sw
      +                          itches
  2263                           ; Switch size 1, requested type "simple"
  2264                           ; Number of cases is 1, Range of values is 0 to 0
  2265                           ; switch strategies available:
  2266                           ; Name         Instructions Cycles
  2267                           ; simple_byte            4     3 (average)
  2268                           ; direct_byte           11     8 (fixed)
  2269                           ; jumptable            260     6 (fixed)
  2270                           ;	Chosen strategy is simple_byte
  2271  01B0  0871               	movf	??_salidas+1,w
  2272  01B1  3A00               	xorlw	0	; case 0
  2273  01B2  1903               	skipnz
  2274  01B3  29B5               	goto	l2085
  2275  01B4  29C6               	goto	l236
  2276  01B5                     l2085:
  2277                           
  2278                           ; Switch size 1, requested type "simple"
  2279                           ; Number of cases is 5, Range of values is 0 to 4
  2280                           ; switch strategies available:
  2281                           ; Name         Instructions Cycles
  2282                           ; simple_byte           16     9 (average)
  2283                           ; direct_byte           23     8 (fixed)
  2284                           ; jumptable            260     6 (fixed)
  2285                           ;	Chosen strategy is simple_byte
  2286  01B5  0870               	movf	??_salidas,w
  2287  01B6  3A00               	xorlw	0	; case 0
  2288  01B7  1903               	skipnz
  2289  01B8  2963               	goto	l1611
  2290  01B9  3A01               	xorlw	1	; case 1
  2291  01BA  1903               	skipnz
  2292  01BB  297B               	goto	l1615
  2293  01BC  3A03               	xorlw	3	; case 2
  2294  01BD  1903               	skipnz
  2295  01BE  2987               	goto	l1619
  2296  01BF  3A01               	xorlw	1	; case 3
  2297  01C0  1903               	skipnz
  2298  01C1  2993               	goto	l1623
  2299  01C2  3A07               	xorlw	7	; case 4
  2300  01C3  1903               	skipnz
  2301  01C4  299F               	goto	l1627
  2302  01C5  29C6               	goto	l236
  2303  01C6                     l236:
  2304  01C6  0008               	return
  2305  01C7                     __end_of_salidas:
  2306                           
  2307                           	psect	text7
  2308  03E8                     __ptext7:	
  2309 ;; *************** function _ADC *****************
  2310 ;; Defined at:
  2311 ;;		line 80 in file "Probador1.c"
  2312 ;; Parameters:    Size  Location     Type
  2313 ;;		None
  2314 ;; Auto vars:     Size  Location     Type
  2315 ;;  valor           2   17[BANK0 ] unsigned int 
  2316 ;;  i               2   15[BANK0 ] unsigned int 
  2317 ;; Return value:  Size  Location     Type
  2318 ;;                  1    wreg      void 
  2319 ;; Registers used:
  2320 ;;		wreg, fsr0l, fsr0h, status,2, status,0, btemp+1, pclath, cstack
  2321 ;; Tracked objects:
  2322 ;;		On entry : 0/0
  2323 ;;		On exit  : 0/0
  2324 ;;		Unchanged: 0/0
  2325 ;; Data sizes:     COMMON   BANK0   BANK1   BANK3   BANK2
  2326 ;;      Params:         0       0       0       0       0
  2327 ;;      Locals:         0       4       0       0       0
  2328 ;;      Temps:          0       3       0       0       0
  2329 ;;      Totals:         0       7       0       0       0
  2330 ;;Total ram usage:        7 bytes
  2331 ;; Hardware stack levels used: 1
  2332 ;; Hardware stack levels required when called: 3
  2333 ;; This function calls:
  2334 ;;		_ADC_Init
  2335 ;;		_ADC_Read
  2336 ;;		_UART_Init
  2337 ;;		___flge
  2338 ;;		___xxtofl
  2339 ;;		_printf
  2340 ;; This function is called by:
  2341 ;;		_main
  2342 ;; This function uses a non-reentrant model
  2343 ;;
  2344                           
  2345  03E8                     _ADC:	
  2346                           ;psect for function _ADC
  2347                           
  2348  03E8                     l1703:	
  2349                           ;incstack = 0
  2350                           ; Regs used in _ADC: [wreg-fsr0h+status,2+status,0+btemp+1+pclath+cstack]
  2351                           
  2352                           
  2353                           ;Probador1.c: 81:     UART_Init();
  2354  03E8  120A  118A  2073  120A  118A  	fcall	_UART_Init
  2355                           
  2356                           ;Probador1.c: 82:     ADC_Init();
  2357  03ED  120A  118A  2091  120A  118A  	fcall	_ADC_Init
  2358  03F2                     l1705:
  2359                           
  2360                           ;Probador1.c: 83:     TRISB = 0b00000000;
  2361  03F2  1683               	bsf	3,5	;RP0=1, select bank1
  2362  03F3  1303               	bcf	3,6	;RP1=0, select bank1
  2363  03F4  0186               	clrf	6	;volatile
  2364  03F5                     l1707:
  2365                           
  2366                           ;Probador1.c: 86:     printf("inicio");
  2367  03F5  3016               	movlw	(low ((STR_1-__stringbase)| (0+32768)))& (0+255)
  2368  03F6  120A  118A  2325  120A  118A  	fcall	_printf
  2369  03FB                     l1709:
  2370                           
  2371                           ;Probador1.c: 88:     for(unsigned int i; i <(3*60/0.150);i++) {
  2372  03FB  1283               	bcf	3,5	;RP0=0, select bank0
  2373  03FC  1303               	bcf	3,6	;RP1=0, select bank0
  2374  03FD  082F               	movf	ADC@i,w
  2375  03FE  00F0               	movwf	___xxtofl@val
  2376  03FF  0830               	movf	ADC@i+1,w
  2377  0400  00F1               	movwf	___xxtofl@val+1
  2378  0401  01F2               	clrf	___xxtofl@val+2
  2379  0402  01F3               	clrf	___xxtofl@val+3
  2380  0403  3000               	movlw	0
  2381  0404  120A  118A  226B  120A  118A  	fcall	___xxtofl
  2382  0409  0873               	movf	?___xxtofl+3,w
  2383  040A  1283               	bcf	3,5	;RP0=0, select bank0
  2384  040B  1303               	bcf	3,6	;RP1=0, select bank0
  2385  040C  00A3               	movwf	___flge@ff1+3
  2386  040D  0872               	movf	?___xxtofl+2,w
  2387  040E  00A2               	movwf	___flge@ff1+2
  2388  040F  0871               	movf	?___xxtofl+1,w
  2389  0410  00A1               	movwf	___flge@ff1+1
  2390  0411  0870               	movf	?___xxtofl,w
  2391  0412  00A0               	movwf	___flge@ff1
  2392  0413  3044               	movlw	68
  2393  0414  00A7               	movwf	___flge@ff2+3
  2394  0415  3096               	movlw	150
  2395  0416  00A6               	movwf	___flge@ff2+2
  2396  0417  3000               	movlw	0
  2397  0418  00A5               	movwf	___flge@ff2+1
  2398  0419  3000               	movlw	0
  2399  041A  00A4               	movwf	___flge@ff2
  2400  041B  120A  118A  21C7  120A  118A  	fcall	___flge
  2401  0420  1C03               	btfss	3,0
  2402  0421  2C23               	goto	u1541
  2403  0422  2C24               	goto	u1540
  2404  0423                     u1541:
  2405  0423  2C25               	goto	l1713
  2406  0424                     u1540:
  2407  0424  2D12               	goto	l110
  2408  0425                     l1713:
  2409                           
  2410                           ;Probador1.c: 90:         unsigned int valor = ADC_Read(0);
  2411  0425  3000               	movlw	0
  2412  0426  120A  118A  20B8  120A  118A  	fcall	_ADC_Read
  2413  042B  0871               	movf	?_ADC_Read+1,w
  2414  042C  1283               	bcf	3,5	;RP0=0, select bank0
  2415  042D  1303               	bcf	3,6	;RP1=0, select bank0
  2416  042E  00B2               	movwf	ADC@valor+1
  2417  042F  0870               	movf	?_ADC_Read,w
  2418  0430  00B1               	movwf	ADC@valor
  2419  0431                     l1715:
  2420                           
  2421                           ;Probador1.c: 91:         printf("AN7 = %u\r\n", valor);
  2422  0431  0832               	movf	ADC@valor+1,w
  2423  0432  00A1               	movwf	?_printf+1
  2424  0433  0831               	movf	ADC@valor,w
  2425  0434  00A0               	movwf	?_printf
  2426  0435  300B               	movlw	(low ((STR_2-__stringbase)| (0+32768)))& (0+255)
  2427  0436  120A  118A  2325  120A  118A  	fcall	_printf
  2428  043B                     l1717:
  2429                           
  2430                           ;Probador1.c: 92:         if (valor >= 0 & valor < 125 ){
  2431  043B  3000               	movlw	0
  2432  043C  1283               	bcf	3,5	;RP0=0, select bank0
  2433  043D  1303               	bcf	3,6	;RP1=0, select bank0
  2434  043E  0232               	subwf	ADC@valor+1,w
  2435  043F  307D               	movlw	125
  2436  0440  1903               	skipnz
  2437  0441  0231               	subwf	ADC@valor,w
  2438  0442  1803               	skipnc
  2439  0443  2C45               	goto	u1551
  2440  0444  2C46               	goto	u1550
  2441  0445                     u1551:
  2442  0445  2C48               	goto	l102
  2443  0446                     u1550:
  2444  0446                     l1719:
  2445                           
  2446                           ;Probador1.c: 93:             PORTB = 0b010000000;
  2447  0446  3080               	movlw	128
  2448  0447  0086               	movwf	6	;volatile
  2449  0448                     l102:	
  2450                           ;Probador1.c: 94:         }
  2451                           
  2452                           
  2453                           ;Probador1.c: 95:         if (valor >= 125 & valor < 250 ){
  2454  0448  3000               	movlw	0
  2455  0449  0232               	subwf	ADC@valor+1,w
  2456  044A  307D               	movlw	125
  2457  044B  1903               	skipnz
  2458  044C  0231               	subwf	ADC@valor,w
  2459  044D  1C03               	skipc
  2460  044E  2C50               	goto	u1561
  2461  044F  2C51               	goto	u1560
  2462  0450                     u1561:
  2463  0450  2C5C               	goto	l103
  2464  0451                     u1560:
  2465  0451                     l1721:
  2466  0451  3000               	movlw	0
  2467  0452  0232               	subwf	ADC@valor+1,w
  2468  0453  30FA               	movlw	250
  2469  0454  1903               	skipnz
  2470  0455  0231               	subwf	ADC@valor,w
  2471  0456  1803               	skipnc
  2472  0457  2C59               	goto	u1571
  2473  0458  2C5A               	goto	u1570
  2474  0459                     u1571:
  2475  0459  2C5C               	goto	l103
  2476  045A                     u1570:
  2477  045A                     l1723:
  2478                           
  2479                           ;Probador1.c: 96:             PORTB = 0b11000000;
  2480  045A  30C0               	movlw	192
  2481  045B  0086               	movwf	6	;volatile
  2482  045C                     l103:	
  2483                           ;Probador1.c: 97:         }
  2484                           
  2485                           
  2486                           ;Probador1.c: 98:         if (valor >= 250 & valor < 375 ){
  2487  045C  3000               	movlw	0
  2488  045D  0232               	subwf	ADC@valor+1,w
  2489  045E  30FA               	movlw	250
  2490  045F  1903               	skipnz
  2491  0460  0231               	subwf	ADC@valor,w
  2492  0461  1C03               	skipc
  2493  0462  2C64               	goto	u1581
  2494  0463  2C65               	goto	u1580
  2495  0464                     u1581:
  2496  0464  2C70               	goto	l104
  2497  0465                     u1580:
  2498  0465                     l1725:
  2499  0465  3001               	movlw	1
  2500  0466  0232               	subwf	ADC@valor+1,w
  2501  0467  3077               	movlw	119
  2502  0468  1903               	skipnz
  2503  0469  0231               	subwf	ADC@valor,w
  2504  046A  1803               	skipnc
  2505  046B  2C6D               	goto	u1591
  2506  046C  2C6E               	goto	u1590
  2507  046D                     u1591:
  2508  046D  2C70               	goto	l104
  2509  046E                     u1590:
  2510  046E                     l1727:
  2511                           
  2512                           ;Probador1.c: 99:             PORTB = 0b11100000;
  2513  046E  30E0               	movlw	224
  2514  046F  0086               	movwf	6	;volatile
  2515  0470                     l104:	
  2516                           ;Probador1.c: 100:         }
  2517                           
  2518                           
  2519                           ;Probador1.c: 101:         if (valor >= 375 & valor < 500 ){
  2520  0470  3001               	movlw	1
  2521  0471  0232               	subwf	ADC@valor+1,w
  2522  0472  3077               	movlw	119
  2523  0473  1903               	skipnz
  2524  0474  0231               	subwf	ADC@valor,w
  2525  0475  1C03               	skipc
  2526  0476  2C78               	goto	u1601
  2527  0477  2C79               	goto	u1600
  2528  0478                     u1601:
  2529  0478  2C84               	goto	l105
  2530  0479                     u1600:
  2531  0479                     l1729:
  2532  0479  3001               	movlw	1
  2533  047A  0232               	subwf	ADC@valor+1,w
  2534  047B  30F4               	movlw	244
  2535  047C  1903               	skipnz
  2536  047D  0231               	subwf	ADC@valor,w
  2537  047E  1803               	skipnc
  2538  047F  2C81               	goto	u1611
  2539  0480  2C82               	goto	u1610
  2540  0481                     u1611:
  2541  0481  2C84               	goto	l105
  2542  0482                     u1610:
  2543  0482                     l1731:
  2544                           
  2545                           ;Probador1.c: 102:             PORTB = 0b11110000;
  2546  0482  30F0               	movlw	240
  2547  0483  0086               	movwf	6	;volatile
  2548  0484                     l105:	
  2549                           ;Probador1.c: 103:         }
  2550                           
  2551                           
  2552                           ;Probador1.c: 104:         if (valor >= 500 & valor < 625 ){
  2553  0484  3001               	movlw	1
  2554  0485  0232               	subwf	ADC@valor+1,w
  2555  0486  30F4               	movlw	244
  2556  0487  1903               	skipnz
  2557  0488  0231               	subwf	ADC@valor,w
  2558  0489  1C03               	skipc
  2559  048A  2C8C               	goto	u1621
  2560  048B  2C8D               	goto	u1620
  2561  048C                     u1621:
  2562  048C  2C98               	goto	l106
  2563  048D                     u1620:
  2564  048D                     l1733:
  2565  048D  3002               	movlw	2
  2566  048E  0232               	subwf	ADC@valor+1,w
  2567  048F  3071               	movlw	113
  2568  0490  1903               	skipnz
  2569  0491  0231               	subwf	ADC@valor,w
  2570  0492  1803               	skipnc
  2571  0493  2C95               	goto	u1631
  2572  0494  2C96               	goto	u1630
  2573  0495                     u1631:
  2574  0495  2C98               	goto	l106
  2575  0496                     u1630:
  2576  0496                     l1735:
  2577                           
  2578                           ;Probador1.c: 105:             PORTB = 0b11111000;
  2579  0496  30F8               	movlw	248
  2580  0497  0086               	movwf	6	;volatile
  2581  0498                     l106:	
  2582                           ;Probador1.c: 106:         }
  2583                           
  2584                           
  2585                           ;Probador1.c: 107:         if (valor >= 625 & valor < 750 ){
  2586  0498  3002               	movlw	2
  2587  0499  0232               	subwf	ADC@valor+1,w
  2588  049A  3071               	movlw	113
  2589  049B  1903               	skipnz
  2590  049C  0231               	subwf	ADC@valor,w
  2591  049D  1C03               	skipc
  2592  049E  2CA0               	goto	u1641
  2593  049F  2CA1               	goto	u1640
  2594  04A0                     u1641:
  2595  04A0  2CAC               	goto	l107
  2596  04A1                     u1640:
  2597  04A1                     l1737:
  2598  04A1  3002               	movlw	2
  2599  04A2  0232               	subwf	ADC@valor+1,w
  2600  04A3  30EE               	movlw	238
  2601  04A4  1903               	skipnz
  2602  04A5  0231               	subwf	ADC@valor,w
  2603  04A6  1803               	skipnc
  2604  04A7  2CA9               	goto	u1651
  2605  04A8  2CAA               	goto	u1650
  2606  04A9                     u1651:
  2607  04A9  2CAC               	goto	l107
  2608  04AA                     u1650:
  2609  04AA                     l1739:
  2610                           
  2611                           ;Probador1.c: 108:             PORTB = 0b11111100;
  2612  04AA  30FC               	movlw	252
  2613  04AB  0086               	movwf	6	;volatile
  2614  04AC                     l107:	
  2615                           ;Probador1.c: 109:         }
  2616                           
  2617                           
  2618                           ;Probador1.c: 110:         if (valor >= 750 & valor < 875 ){
  2619  04AC  3002               	movlw	2
  2620  04AD  0232               	subwf	ADC@valor+1,w
  2621  04AE  30EE               	movlw	238
  2622  04AF  1903               	skipnz
  2623  04B0  0231               	subwf	ADC@valor,w
  2624  04B1  1C03               	skipc
  2625  04B2  2CB4               	goto	u1661
  2626  04B3  2CB5               	goto	u1660
  2627  04B4                     u1661:
  2628  04B4  2CC0               	goto	l108
  2629  04B5                     u1660:
  2630  04B5                     l1741:
  2631  04B5  3003               	movlw	3
  2632  04B6  0232               	subwf	ADC@valor+1,w
  2633  04B7  306B               	movlw	107
  2634  04B8  1903               	skipnz
  2635  04B9  0231               	subwf	ADC@valor,w
  2636  04BA  1803               	skipnc
  2637  04BB  2CBD               	goto	u1671
  2638  04BC  2CBE               	goto	u1670
  2639  04BD                     u1671:
  2640  04BD  2CC0               	goto	l108
  2641  04BE                     u1670:
  2642  04BE                     l1743:
  2643                           
  2644                           ;Probador1.c: 111:             PORTB = 0b11111110;
  2645  04BE  30FE               	movlw	254
  2646  04BF  0086               	movwf	6	;volatile
  2647  04C0                     l108:	
  2648                           ;Probador1.c: 112:         }
  2649                           
  2650                           
  2651                           ;Probador1.c: 113:         if (valor >= 875 & valor < 1025 ){
  2652  04C0  3003               	movlw	3
  2653  04C1  0232               	subwf	ADC@valor+1,w
  2654  04C2  306B               	movlw	107
  2655  04C3  1903               	skipnz
  2656  04C4  0231               	subwf	ADC@valor,w
  2657  04C5  1C03               	skipc
  2658  04C6  2CC8               	goto	u1681
  2659  04C7  2CC9               	goto	u1680
  2660  04C8                     u1681:
  2661  04C8  2CD4               	goto	l109
  2662  04C9                     u1680:
  2663  04C9                     l1745:
  2664  04C9  3004               	movlw	4
  2665  04CA  0232               	subwf	ADC@valor+1,w
  2666  04CB  3001               	movlw	1
  2667  04CC  1903               	skipnz
  2668  04CD  0231               	subwf	ADC@valor,w
  2669  04CE  1803               	skipnc
  2670  04CF  2CD1               	goto	u1691
  2671  04D0  2CD2               	goto	u1690
  2672  04D1                     u1691:
  2673  04D1  2CD4               	goto	l109
  2674  04D2                     u1690:
  2675  04D2                     l1747:
  2676                           
  2677                           ;Probador1.c: 114:             PORTB = 0b11111111;
  2678  04D2  30FF               	movlw	255
  2679  04D3  0086               	movwf	6	;volatile
  2680  04D4                     l109:	
  2681                           ;Probador1.c: 115:         }
  2682                           
  2683                           
  2684                           ;Probador1.c: 117:         _delay((unsigned long)((150)*(8000000UL/4000.0)));
  2685  04D4  3002               	movlw	2
  2686  04D5  1283               	bcf	3,5	;RP0=0, select bank0
  2687  04D6  1303               	bcf	3,6	;RP1=0, select bank0
  2688  04D7  00AE               	movwf	??_ADC+2
  2689  04D8  3086               	movlw	134
  2690  04D9  00AD               	movwf	??_ADC+1
  2691  04DA  3098               	movlw	152
  2692  04DB  00AC               	movwf	??_ADC
  2693  04DC                     u2267:
  2694  04DC  0BAC               	decfsz	??_ADC,f
  2695  04DD  2CDC               	goto	u2267
  2696  04DE  0BAD               	decfsz	??_ADC+1,f
  2697  04DF  2CDC               	goto	u2267
  2698  04E0  0BAE               	decfsz	??_ADC+2,f
  2699  04E1  2CDC               	goto	u2267
  2700  04E2  0000               	nop
  2701                           
  2702                           ;Probador1.c: 118:     }
  2703  04E3  3001               	movlw	1
  2704  04E4  1283               	bcf	3,5	;RP0=0, select bank0
  2705  04E5  1303               	bcf	3,6	;RP1=0, select bank0
  2706  04E6  07AF               	addwf	ADC@i,f
  2707  04E7  1803               	skipnc
  2708  04E8  0AB0               	incf	ADC@i+1,f
  2709  04E9  3000               	movlw	0
  2710  04EA  07B0               	addwf	ADC@i+1,f
  2711  04EB                     l1749:
  2712  04EB  082F               	movf	ADC@i,w
  2713  04EC  00F0               	movwf	___xxtofl@val
  2714  04ED  0830               	movf	ADC@i+1,w
  2715  04EE  00F1               	movwf	___xxtofl@val+1
  2716  04EF  01F2               	clrf	___xxtofl@val+2
  2717  04F0  01F3               	clrf	___xxtofl@val+3
  2718  04F1  3000               	movlw	0
  2719  04F2  120A  118A  226B  120A  118A  	fcall	___xxtofl
  2720  04F7  0873               	movf	?___xxtofl+3,w
  2721  04F8  1283               	bcf	3,5	;RP0=0, select bank0
  2722  04F9  1303               	bcf	3,6	;RP1=0, select bank0
  2723  04FA  00A3               	movwf	___flge@ff1+3
  2724  04FB  0872               	movf	?___xxtofl+2,w
  2725  04FC  00A2               	movwf	___flge@ff1+2
  2726  04FD  0871               	movf	?___xxtofl+1,w
  2727  04FE  00A1               	movwf	___flge@ff1+1
  2728  04FF  0870               	movf	?___xxtofl,w
  2729  0500  00A0               	movwf	___flge@ff1
  2730  0501  3044               	movlw	68
  2731  0502  00A7               	movwf	___flge@ff2+3
  2732  0503  3096               	movlw	150
  2733  0504  00A6               	movwf	___flge@ff2+2
  2734  0505  3000               	movlw	0
  2735  0506  00A5               	movwf	___flge@ff2+1
  2736  0507  3000               	movlw	0
  2737  0508  00A4               	movwf	___flge@ff2
  2738  0509  120A  118A  21C7  120A  118A  	fcall	___flge
  2739  050E  1C03               	btfss	3,0
  2740  050F  2D11               	goto	u1701
  2741  0510  2D12               	goto	u1700
  2742  0511                     u1701:
  2743  0511  2C25               	goto	l1713
  2744  0512                     u1700:
  2745  0512                     l110:
  2746  0512  0008               	return
  2747  0513                     __end_of_ADC:
  2748                           
  2749                           	psect	text8
  2750  0325                     __ptext8:	
  2751 ;; *************** function _printf *****************
  2752 ;; Defined at:
  2753 ;;		line 477 in file "C:\Program Files\Microchip\xc8\v2.36\pic\sources\c90\common\doprnt.c"
  2754 ;; Parameters:    Size  Location     Type
  2755 ;;  f               1    wreg     PTR const unsigned char 
  2756 ;;		 -> STR_2(11), STR_1(7), 
  2757 ;; Auto vars:     Size  Location     Type
  2758 ;;  f               1   10[BANK0 ] PTR const unsigned char 
  2759 ;;		 -> STR_2(11), STR_1(7), 
  2760 ;;  tmpval          4    0        struct .
  2761 ;;  val             2    7[BANK0 ] unsigned int 
  2762 ;;  cp              2    0        PTR const unsigned char 
  2763 ;;  len             2    0        unsigned int 
  2764 ;;  c               1   11[BANK0 ] unsigned char 
  2765 ;;  prec            1    9[BANK0 ] char 
  2766 ;;  ap              1    6[BANK0 ] PTR void [1]
  2767 ;;		 -> ?_printf(2), 
  2768 ;;  flag            1    5[BANK0 ] unsigned char 
  2769 ;; Return value:  Size  Location     Type
  2770 ;;                  2    0[BANK0 ] int 
  2771 ;; Registers used:
  2772 ;;		wreg, fsr0l, fsr0h, status,2, status,0, btemp+1, pclath, cstack
  2773 ;; Tracked objects:
  2774 ;;		On entry : 0/0
  2775 ;;		On exit  : 0/0
  2776 ;;		Unchanged: 0/0
  2777 ;; Data sizes:     COMMON   BANK0   BANK1   BANK3   BANK2
  2778 ;;      Params:         0       2       0       0       0
  2779 ;;      Locals:         0       7       0       0       0
  2780 ;;      Temps:          0       3       0       0       0
  2781 ;;      Totals:         0      12       0       0       0
  2782 ;;Total ram usage:       12 bytes
  2783 ;; Hardware stack levels used: 1
  2784 ;; Hardware stack levels required when called: 2
  2785 ;; This function calls:
  2786 ;;		___lwdiv
  2787 ;;		___lwmod
  2788 ;;		_putch
  2789 ;; This function is called by:
  2790 ;;		_ADC
  2791 ;; This function uses a non-reentrant model
  2792 ;;
  2793                           
  2794  0325                     _printf:	
  2795                           ;psect for function _printf
  2796                           
  2797                           
  2798                           ;incstack = 0
  2799                           ; Regs used in _printf: [wreg-fsr0h+status,2+status,0+btemp+1+pclath+cstack]
  2800                           ;printf@f stored from wreg
  2801  0325  1283               	bcf	3,5	;RP0=0, select bank0
  2802  0326  1303               	bcf	3,6	;RP1=0, select bank0
  2803  0327  00AA               	movwf	printf@f
  2804  0328                     l1565:
  2805                           
  2806                           ;C:\Program Files\Microchip\xc8\v2.36\pic\sources\c90\common\doprnt.c: 477: printf(const
      +                           char * f, ...);C:\Program Files\Microchip\xc8\v2.36\pic\sources\c90\common\doprnt.c: 47
      +                          8: {;C:\Program Files\Microchip\xc8\v2.36\pic\sources\c90\common\doprnt.c: 479:  va_list
      +                           ap;;C:\Program Files\Microchip\xc8\v2.36\pic\sources\c90\common\doprnt.c: 512:  char c;
      +                          ;C:\Program Files\Microchip\xc8\v2.36\pic\sources\c90\common\doprnt.c: 521:  signed char
      +                           prec;;C:\Program Files\Microchip\xc8\v2.36\pic\sources\c90\common\doprnt.c: 525:  unsig
      +                          ned char flag;
  2807  0328  3020               	movlw	(low (?_printf| 0))& (0+255)
  2808  0329  00A2               	movwf	??_printf
  2809  032A  0822               	movf	??_printf,w
  2810  032B  00A6               	movwf	printf@ap
  2811                           
  2812                           ;C:\Program Files\Microchip\xc8\v2.36\pic\sources\c90\common\doprnt.c: 553:  while((c = 
      +                          *f++)) {
  2813  032C  2BD3               	goto	l1603
  2814  032D                     l1567:
  2815                           
  2816                           ;C:\Program Files\Microchip\xc8\v2.36\pic\sources\c90\common\doprnt.c: 555:   if(c != '%
      +                          ')
  2817  032D  3025               	movlw	37
  2818  032E  062B               	xorwf	printf@c,w
  2819  032F  1903               	btfsc	3,2
  2820  0330  2B32               	goto	u1231
  2821  0331  2B33               	goto	u1230
  2822  0332                     u1231:
  2823  0332  2B3A               	goto	l1571
  2824  0333                     u1230:
  2825  0333                     l1569:
  2826                           
  2827                           ;C:\Program Files\Microchip\xc8\v2.36\pic\sources\c90\common\doprnt.c: 557:   {;C:\Progr
      +                          am Files\Microchip\xc8\v2.36\pic\sources\c90\common\doprnt.c: 558:    (putch(c) );
  2828  0333  082B               	movf	printf@c,w
  2829  0334  120A  118A  2051  120A  118A  	fcall	_putch
  2830                           
  2831                           ;C:\Program Files\Microchip\xc8\v2.36\pic\sources\c90\common\doprnt.c: 559:    continue;
  2832  0339  2BD3               	goto	l1603
  2833  033A                     l1571:
  2834                           
  2835                           ;C:\Program Files\Microchip\xc8\v2.36\pic\sources\c90\common\doprnt.c: 565:   flag = 0;
  2836  033A  01A5               	clrf	printf@flag
  2837                           
  2838                           ;C:\Program Files\Microchip\xc8\v2.36\pic\sources\c90\common\doprnt.c: 661:   switch(c =
      +                           *f++) {
  2839  033B  2B41               	goto	l1577
  2840  033C                     l1573:
  2841                           
  2842                           ;C:\Program Files\Microchip\xc8\v2.36\pic\sources\c90\common\doprnt.c: 844:    flag |= 0
      +                          xC0;
  2843  033C  30C0               	movlw	192
  2844  033D  00A2               	movwf	??_printf
  2845  033E  0822               	movf	??_printf,w
  2846  033F  04A5               	iorwf	printf@flag,f
  2847                           
  2848                           ;C:\Program Files\Microchip\xc8\v2.36\pic\sources\c90\common\doprnt.c: 845:    break;
  2849  0340  2B5B               	goto	l1579
  2850  0341                     l1577:
  2851  0341  3001               	movlw	1
  2852  0342  07AA               	addwf	printf@f,f
  2853  0343  30FF               	movlw	-1
  2854  0344  072A               	addwf	printf@f,w
  2855  0345  0084               	movwf	4
  2856  0346  120A  118A  2003  120A  118A  	fcall	stringdir
  2857  034B  00AB               	movwf	printf@c
  2858  034C  00A2               	movwf	??_printf
  2859  034D  01A3               	clrf	??_printf+1
  2860                           
  2861                           ; Switch on 2 bytes has been partitioned into a top level switch of size 1, and 1 sub-sw
      +                          itches
  2862                           ; Switch size 1, requested type "simple"
  2863                           ; Number of cases is 1, Range of values is 0 to 0
  2864                           ; switch strategies available:
  2865                           ; Name         Instructions Cycles
  2866                           ; simple_byte            4     3 (average)
  2867                           ; direct_byte           11     8 (fixed)
  2868                           ; jumptable            260     6 (fixed)
  2869                           ;	Chosen strategy is simple_byte
  2870  034E  0823               	movf	??_printf+1,w
  2871  034F  3A00               	xorlw	0	; case 0
  2872  0350  1903               	skipnz
  2873  0351  2B53               	goto	l2087
  2874  0352  2BD3               	goto	l1603
  2875  0353                     l2087:
  2876                           
  2877                           ; Switch size 1, requested type "simple"
  2878                           ; Number of cases is 2, Range of values is 0 to 117
  2879                           ; switch strategies available:
  2880                           ; Name         Instructions Cycles
  2881                           ; simple_byte            7     4 (average)
  2882                           ; jumptable            260     6 (fixed)
  2883                           ;	Chosen strategy is simple_byte
  2884  0353  0822               	movf	??_printf,w
  2885  0354  3A00               	xorlw	0	; case 0
  2886  0355  1903               	skipnz
  2887  0356  2BE7               	goto	l345
  2888  0357  3A75               	xorlw	117	; case 117
  2889  0358  1903               	skipnz
  2890  0359  2B3C               	goto	l1573
  2891  035A  2BD3               	goto	l1603
  2892  035B                     l1579:
  2893                           
  2894                           ;C:\Program Files\Microchip\xc8\v2.36\pic\sources\c90\common\doprnt.c: 1299:   {;C:\Prog
      +                          ram Files\Microchip\xc8\v2.36\pic\sources\c90\common\doprnt.c: 1312:     val = (*(unsign
      +                          ed *)__va_arg((*(unsigned **)ap), (unsigned)0));
  2895  035B  0826               	movf	printf@ap,w
  2896  035C  0084               	movwf	4
  2897  035D  1383               	bcf	3,7	;select IRP bank0
  2898  035E  0800               	movf	0,w
  2899  035F  00A7               	movwf	printf@val
  2900  0360  0A84               	incf	4,f
  2901  0361  0800               	movf	0,w
  2902  0362  00A8               	movwf	printf@val+1
  2903  0363                     l1581:
  2904  0363  3002               	movlw	2
  2905  0364  00A2               	movwf	??_printf
  2906  0365  0822               	movf	??_printf,w
  2907  0366  07A6               	addwf	printf@ap,f
  2908  0367                     l1583:
  2909                           
  2910                           ;C:\Program Files\Microchip\xc8\v2.36\pic\sources\c90\common\doprnt.c: 1313:   };C:\Prog
      +                          ram Files\Microchip\xc8\v2.36\pic\sources\c90\common\doprnt.c: 1331:    for(c = 1 ; c !=
      +                           sizeof dpowers/sizeof dpowers[0] ; c++)
  2911  0367  01AB               	clrf	printf@c
  2912  0368  0AAB               	incf	printf@c,f
  2913  0369                     l1589:
  2914                           
  2915                           ;C:\Program Files\Microchip\xc8\v2.36\pic\sources\c90\common\doprnt.c: 1332:     if(val 
      +                          < dpowers[c])
  2916  0369  082B               	movf	printf@c,w
  2917  036A  00A2               	movwf	??_printf
  2918  036B  0722               	addwf	??_printf,w
  2919  036C  3E01               	addlw	low ((_dpowers-__stringbase)| (0+32768))
  2920  036D  0084               	movwf	4
  2921  036E  120A  118A  2003  120A  118A  	fcall	stringdir
  2922  0373  00A3               	movwf	??_printf+1
  2923  0374  120A  118A  2003  120A  118A  	fcall	stringdir
  2924  0379  00A4               	movwf	??_printf+2
  2925  037A  0824               	movf	??_printf+2,w
  2926  037B  0228               	subwf	printf@val+1,w
  2927  037C  1D03               	skipz
  2928  037D  2B80               	goto	u1245
  2929  037E  0823               	movf	??_printf+1,w
  2930  037F  0227               	subwf	printf@val,w
  2931  0380                     u1245:
  2932  0380  1803               	skipnc
  2933  0381  2B83               	goto	u1241
  2934  0382  2B84               	goto	u1240
  2935  0383                     u1241:
  2936  0383  2B85               	goto	l1593
  2937  0384                     u1240:
  2938  0384  2B8F               	goto	l1595
  2939  0385                     l1593:
  2940  0385  3001               	movlw	1
  2941  0386  00A2               	movwf	??_printf
  2942  0387  0822               	movf	??_printf,w
  2943  0388  07AB               	addwf	printf@c,f
  2944  0389  3005               	movlw	5
  2945  038A  062B               	xorwf	printf@c,w
  2946  038B  1D03               	btfss	3,2
  2947  038C  2B8E               	goto	u1251
  2948  038D  2B8F               	goto	u1250
  2949  038E                     u1251:
  2950  038E  2B69               	goto	l1589
  2951  038F                     u1250:
  2952  038F                     l1595:
  2953                           
  2954                           ;C:\Program Files\Microchip\xc8\v2.36\pic\sources\c90\common\doprnt.c: 1448:   {;C:\Prog
      +                          ram Files\Microchip\xc8\v2.36\pic\sources\c90\common\doprnt.c: 1495:   };C:\Program File
      +                          s\Microchip\xc8\v2.36\pic\sources\c90\common\doprnt.c: 1498:   prec = c;
  2955  038F  082B               	movf	printf@c,w
  2956  0390  00A2               	movwf	??_printf
  2957  0391  0822               	movf	??_printf,w
  2958  0392  00A9               	movwf	printf@prec
  2959                           
  2960                           ;C:\Program Files\Microchip\xc8\v2.36\pic\sources\c90\common\doprnt.c: 1500:   while(pre
      +                          c--) {
  2961  0393  2BC8               	goto	l1601
  2962  0394                     l1597:
  2963                           
  2964                           ;C:\Program Files\Microchip\xc8\v2.36\pic\sources\c90\common\doprnt.c: 1504:    {;C:\Pro
      +                          gram Files\Microchip\xc8\v2.36\pic\sources\c90\common\doprnt.c: 1515:     c = (val / dpo
      +                          wers[(unsigned char)prec]) % 10 + '0';
  2965  0394  300A               	movlw	10
  2966  0395  00F8               	movwf	___lwmod@divisor
  2967  0396  3000               	movlw	0
  2968  0397  00F9               	movwf	___lwmod@divisor+1
  2969  0398  0829               	movf	printf@prec,w
  2970  0399  00A2               	movwf	??_printf
  2971  039A  0722               	addwf	??_printf,w
  2972  039B  3E01               	addlw	low ((_dpowers-__stringbase)| (0+32768))
  2973  039C  0084               	movwf	4
  2974  039D  120A  118A  2003  120A  118A  	fcall	stringdir
  2975  03A2  00F0               	movwf	___lwdiv@divisor
  2976  03A3  120A  118A  2003  120A  118A  	fcall	stringdir
  2977  03A8  00F1               	movwf	___lwdiv@divisor+1
  2978  03A9  0828               	movf	printf@val+1,w
  2979  03AA  00F3               	movwf	___lwdiv@dividend+1
  2980  03AB  0827               	movf	printf@val,w
  2981  03AC  00F2               	movwf	___lwdiv@dividend
  2982  03AD  120A  118A  211D  120A  118A  	fcall	___lwdiv
  2983  03B2  0871               	movf	?___lwdiv+1,w
  2984  03B3  00FB               	movwf	___lwmod@dividend+1
  2985  03B4  0870               	movf	?___lwdiv,w
  2986  03B5  00FA               	movwf	___lwmod@dividend
  2987  03B6  120A  118A  20E3  120A  118A  	fcall	___lwmod
  2988  03BB  0878               	movf	?___lwmod,w
  2989  03BC  3E30               	addlw	48
  2990  03BD  1283               	bcf	3,5	;RP0=0, select bank0
  2991  03BE  1303               	bcf	3,6	;RP1=0, select bank0
  2992  03BF  00A3               	movwf	??_printf+1
  2993  03C0  0823               	movf	??_printf+1,w
  2994  03C1  00AB               	movwf	printf@c
  2995  03C2                     l1599:
  2996                           
  2997                           ;C:\Program Files\Microchip\xc8\v2.36\pic\sources\c90\common\doprnt.c: 1549:    };C:\Pro
      +                          gram Files\Microchip\xc8\v2.36\pic\sources\c90\common\doprnt.c: 1550:    (putch(c) );
  2998  03C2  082B               	movf	printf@c,w
  2999  03C3  120A  118A  2051  120A  118A  	fcall	_putch
  3000  03C8                     l1601:
  3001                           
  3002                           ;C:\Program Files\Microchip\xc8\v2.36\pic\sources\c90\common\doprnt.c: 1500:   while(pre
      +                          c--) {
  3003  03C8  30FF               	movlw	255
  3004  03C9  1283               	bcf	3,5	;RP0=0, select bank0
  3005  03CA  1303               	bcf	3,6	;RP1=0, select bank0
  3006  03CB  00A2               	movwf	??_printf
  3007  03CC  0822               	movf	??_printf,w
  3008  03CD  07A9               	addwf	printf@prec,f
  3009  03CE  0A29               	incf	printf@prec,w
  3010  03CF  1D03               	btfss	3,2
  3011  03D0  2BD2               	goto	u1261
  3012  03D1  2BD3               	goto	u1260
  3013  03D2                     u1261:
  3014  03D2  2B94               	goto	l1597
  3015  03D3                     u1260:
  3016  03D3                     l1603:
  3017                           
  3018                           ;C:\Program Files\Microchip\xc8\v2.36\pic\sources\c90\common\doprnt.c: 553:  while((c = 
      +                          *f++)) {
  3019  03D3  3001               	movlw	1
  3020  03D4  1283               	bcf	3,5	;RP0=0, select bank0
  3021  03D5  1303               	bcf	3,6	;RP1=0, select bank0
  3022  03D6  07AA               	addwf	printf@f,f
  3023  03D7  30FF               	movlw	-1
  3024  03D8  072A               	addwf	printf@f,w
  3025  03D9  0084               	movwf	4
  3026  03DA  120A  118A  2003  120A  118A  	fcall	stringdir
  3027  03DF  00A2               	movwf	??_printf
  3028  03E0  0822               	movf	??_printf,w
  3029  03E1  00AB               	movwf	printf@c
  3030  03E2  082B               	movf	printf@c,w
  3031  03E3  1D03               	btfss	3,2
  3032  03E4  2BE6               	goto	u1271
  3033  03E5  2BE7               	goto	u1270
  3034  03E6                     u1271:
  3035  03E6  2B2D               	goto	l1567
  3036  03E7                     u1270:
  3037  03E7                     l345:
  3038  03E7  0008               	return
  3039  03E8                     __end_of_printf:
  3040                           
  3041                           	psect	text9
  3042  0051                     __ptext9:	
  3043 ;; *************** function _putch *****************
  3044 ;; Defined at:
  3045 ;;		line 59 in file "Probador1.c"
  3046 ;; Parameters:    Size  Location     Type
  3047 ;;  data            1    wreg     unsigned char 
  3048 ;; Auto vars:     Size  Location     Type
  3049 ;;  data            1    1[COMMON] unsigned char 
  3050 ;; Return value:  Size  Location     Type
  3051 ;;                  1    wreg      void 
  3052 ;; Registers used:
  3053 ;;		wreg, status,2, status,0, pclath, cstack
  3054 ;; Tracked objects:
  3055 ;;		On entry : 0/0
  3056 ;;		On exit  : 0/0
  3057 ;;		Unchanged: 0/0
  3058 ;; Data sizes:     COMMON   BANK0   BANK1   BANK3   BANK2
  3059 ;;      Params:         0       0       0       0       0
  3060 ;;      Locals:         1       0       0       0       0
  3061 ;;      Temps:          0       0       0       0       0
  3062 ;;      Totals:         1       0       0       0       0
  3063 ;;Total ram usage:        1 bytes
  3064 ;; Hardware stack levels used: 1
  3065 ;; Hardware stack levels required when called: 1
  3066 ;; This function calls:
  3067 ;;		_UART_Write
  3068 ;; This function is called by:
  3069 ;;		_printf
  3070 ;; This function uses a non-reentrant model
  3071 ;;
  3072                           
  3073  0051                     _putch:	
  3074                           ;psect for function _putch
  3075                           
  3076                           
  3077                           ;incstack = 0
  3078                           ; Regs used in _putch: [wreg+status,2+status,0+pclath+cstack]
  3079                           ;putch@data stored from wreg
  3080  0051  00F1               	movwf	putch@data
  3081  0052                     l1493:
  3082                           
  3083                           ;Probador1.c: 60:     UART_Write(data);
  3084  0052  0871               	movf	putch@data,w
  3085  0053  120A  118A  2059  120A  118A  	fcall	_UART_Write
  3086  0058                     l88:
  3087  0058  0008               	return
  3088  0059                     __end_of_putch:
  3089                           
  3090                           	psect	text10
  3091  0059                     __ptext10:	
  3092 ;; *************** function _UART_Write *****************
  3093 ;; Defined at:
  3094 ;;		line 54 in file "Probador1.c"
  3095 ;; Parameters:    Size  Location     Type
  3096 ;;  data            1    wreg     unsigned char 
  3097 ;; Auto vars:     Size  Location     Type
  3098 ;;  data            1    0[COMMON] unsigned char 
  3099 ;; Return value:  Size  Location     Type
  3100 ;;                  1    wreg      void 
  3101 ;; Registers used:
  3102 ;;		wreg
  3103 ;; Tracked objects:
  3104 ;;		On entry : 0/0
  3105 ;;		On exit  : 0/0
  3106 ;;		Unchanged: 0/0
  3107 ;; Data sizes:     COMMON   BANK0   BANK1   BANK3   BANK2
  3108 ;;      Params:         0       0       0       0       0
  3109 ;;      Locals:         1       0       0       0       0
  3110 ;;      Temps:          0       0       0       0       0
  3111 ;;      Totals:         1       0       0       0       0
  3112 ;;Total ram usage:        1 bytes
  3113 ;; Hardware stack levels used: 1
  3114 ;; This function calls:
  3115 ;;		Nothing
  3116 ;; This function is called by:
  3117 ;;		_putch
  3118 ;; This function uses a non-reentrant model
  3119 ;;
  3120                           
  3121  0059                     _UART_Write:	
  3122                           ;psect for function _UART_Write
  3123                           
  3124                           
  3125                           ;incstack = 0
  3126                           ; Regs used in _UART_Write: [wreg]
  3127                           ;UART_Write@data stored from wreg
  3128  0059  00F0               	movwf	UART_Write@data
  3129  005A                     l1489:
  3130  005A                     l82:	
  3131                           ;Probador1.c: 55:     while (!TXSTAbits.TRMT);
  3132                           
  3133  005A  1683               	bsf	3,5	;RP0=1, select bank1
  3134  005B  1303               	bcf	3,6	;RP1=0, select bank1
  3135  005C  1C98               	btfss	24,1	;volatile
  3136  005D  285F               	goto	u1071
  3137  005E  2860               	goto	u1070
  3138  005F                     u1071:
  3139  005F  285A               	goto	l82
  3140  0060                     u1070:
  3141  0060                     l1491:
  3142                           
  3143                           ;Probador1.c: 56:     TXREG = data;
  3144  0060  0870               	movf	UART_Write@data,w
  3145  0061  1283               	bcf	3,5	;RP0=0, select bank0
  3146  0062  1303               	bcf	3,6	;RP1=0, select bank0
  3147  0063  0099               	movwf	25	;volatile
  3148  0064                     l85:
  3149  0064  0008               	return
  3150  0065                     __end_of_UART_Write:
  3151                           
  3152                           	psect	text11
  3153  00E3                     __ptext11:	
  3154 ;; *************** function ___lwmod *****************
  3155 ;; Defined at:
  3156 ;;		line 5 in file "C:\Program Files\Microchip\xc8\v2.36\pic\sources\c90\common\lwmod.c"
  3157 ;; Parameters:    Size  Location     Type
  3158 ;;  divisor         2    8[COMMON] unsigned int 
  3159 ;;  dividend        2   10[COMMON] unsigned int 
  3160 ;; Auto vars:     Size  Location     Type
  3161 ;;  counter         1   13[COMMON] unsigned char 
  3162 ;; Return value:  Size  Location     Type
  3163 ;;                  2    8[COMMON] unsigned int 
  3164 ;; Registers used:
  3165 ;;		wreg, status,2, status,0
  3166 ;; Tracked objects:
  3167 ;;		On entry : 0/0
  3168 ;;		On exit  : 0/0
  3169 ;;		Unchanged: 0/0
  3170 ;; Data sizes:     COMMON   BANK0   BANK1   BANK3   BANK2
  3171 ;;      Params:         4       0       0       0       0
  3172 ;;      Locals:         1       0       0       0       0
  3173 ;;      Temps:          1       0       0       0       0
  3174 ;;      Totals:         6       0       0       0       0
  3175 ;;Total ram usage:        6 bytes
  3176 ;; Hardware stack levels used: 1
  3177 ;; This function calls:
  3178 ;;		Nothing
  3179 ;; This function is called by:
  3180 ;;		_printf
  3181 ;; This function uses a non-reentrant model
  3182 ;;
  3183                           
  3184  00E3                     ___lwmod:	
  3185                           ;psect for function ___lwmod
  3186                           
  3187  00E3                     l1521:	
  3188                           ;incstack = 0
  3189                           ; Regs used in ___lwmod: [wreg+status,2+status,0]
  3190                           
  3191  00E3  0878               	movf	___lwmod@divisor,w
  3192  00E4  0479               	iorwf	___lwmod@divisor+1,w
  3193  00E5  1903               	btfsc	3,2
  3194  00E6  28E8               	goto	u1151
  3195  00E7  28E9               	goto	u1150
  3196  00E8                     u1151:
  3197  00E8  2918               	goto	l1539
  3198  00E9                     u1150:
  3199  00E9                     l1523:
  3200  00E9  01FD               	clrf	___lwmod@counter
  3201  00EA  0AFD               	incf	___lwmod@counter,f
  3202  00EB  28F7               	goto	l1529
  3203  00EC                     l1525:
  3204  00EC  3001               	movlw	1
  3205  00ED                     u1165:
  3206  00ED  1003               	clrc
  3207  00EE  0DF8               	rlf	___lwmod@divisor,f
  3208  00EF  0DF9               	rlf	___lwmod@divisor+1,f
  3209  00F0  3EFF               	addlw	-1
  3210  00F1  1D03               	skipz
  3211  00F2  28ED               	goto	u1165
  3212  00F3                     l1527:
  3213  00F3  3001               	movlw	1
  3214  00F4  00FC               	movwf	??___lwmod
  3215  00F5  087C               	movf	??___lwmod,w
  3216  00F6  07FD               	addwf	___lwmod@counter,f
  3217  00F7                     l1529:
  3218  00F7  1FF9               	btfss	___lwmod@divisor+1,7
  3219  00F8  28FA               	goto	u1171
  3220  00F9  28FB               	goto	u1170
  3221  00FA                     u1171:
  3222  00FA  28EC               	goto	l1525
  3223  00FB                     u1170:
  3224  00FB                     l1531:
  3225  00FB  0879               	movf	___lwmod@divisor+1,w
  3226  00FC  027B               	subwf	___lwmod@dividend+1,w
  3227  00FD  1D03               	skipz
  3228  00FE  2901               	goto	u1185
  3229  00FF  0878               	movf	___lwmod@divisor,w
  3230  0100  027A               	subwf	___lwmod@dividend,w
  3231  0101                     u1185:
  3232  0101  1C03               	skipc
  3233  0102  2904               	goto	u1181
  3234  0103  2905               	goto	u1180
  3235  0104                     u1181:
  3236  0104  290B               	goto	l1535
  3237  0105                     u1180:
  3238  0105                     l1533:
  3239  0105  0878               	movf	___lwmod@divisor,w
  3240  0106  02FA               	subwf	___lwmod@dividend,f
  3241  0107  0879               	movf	___lwmod@divisor+1,w
  3242  0108  1C03               	skipc
  3243  0109  03FB               	decf	___lwmod@dividend+1,f
  3244  010A  02FB               	subwf	___lwmod@dividend+1,f
  3245  010B                     l1535:
  3246  010B  3001               	movlw	1
  3247  010C                     u1195:
  3248  010C  1003               	clrc
  3249  010D  0CF9               	rrf	___lwmod@divisor+1,f
  3250  010E  0CF8               	rrf	___lwmod@divisor,f
  3251  010F  3EFF               	addlw	-1
  3252  0110  1D03               	skipz
  3253  0111  290C               	goto	u1195
  3254  0112                     l1537:
  3255  0112  3001               	movlw	1
  3256  0113  02FD               	subwf	___lwmod@counter,f
  3257  0114  1D03               	btfss	3,2
  3258  0115  2917               	goto	u1201
  3259  0116  2918               	goto	u1200
  3260  0117                     u1201:
  3261  0117  28FB               	goto	l1531
  3262  0118                     u1200:
  3263  0118                     l1539:
  3264  0118  087B               	movf	___lwmod@dividend+1,w
  3265  0119  00F9               	movwf	?___lwmod+1
  3266  011A  087A               	movf	___lwmod@dividend,w
  3267  011B  00F8               	movwf	?___lwmod
  3268  011C                     l631:
  3269  011C  0008               	return
  3270  011D                     __end_of___lwmod:
  3271                           
  3272                           	psect	text12
  3273  011D                     __ptext12:	
  3274 ;; *************** function ___lwdiv *****************
  3275 ;; Defined at:
  3276 ;;		line 5 in file "C:\Program Files\Microchip\xc8\v2.36\pic\sources\c90\common\lwdiv.c"
  3277 ;; Parameters:    Size  Location     Type
  3278 ;;  divisor         2    0[COMMON] unsigned int 
  3279 ;;  dividend        2    2[COMMON] unsigned int 
  3280 ;; Auto vars:     Size  Location     Type
  3281 ;;  quotient        2    5[COMMON] unsigned int 
  3282 ;;  counter         1    7[COMMON] unsigned char 
  3283 ;; Return value:  Size  Location     Type
  3284 ;;                  2    0[COMMON] unsigned int 
  3285 ;; Registers used:
  3286 ;;		wreg, status,2, status,0
  3287 ;; Tracked objects:
  3288 ;;		On entry : 0/0
  3289 ;;		On exit  : 0/0
  3290 ;;		Unchanged: 0/0
  3291 ;; Data sizes:     COMMON   BANK0   BANK1   BANK3   BANK2
  3292 ;;      Params:         4       0       0       0       0
  3293 ;;      Locals:         3       0       0       0       0
  3294 ;;      Temps:          1       0       0       0       0
  3295 ;;      Totals:         8       0       0       0       0
  3296 ;;Total ram usage:        8 bytes
  3297 ;; Hardware stack levels used: 1
  3298 ;; This function calls:
  3299 ;;		Nothing
  3300 ;; This function is called by:
  3301 ;;		_printf
  3302 ;; This function uses a non-reentrant model
  3303 ;;
  3304                           
  3305  011D                     ___lwdiv:	
  3306                           ;psect for function ___lwdiv
  3307                           
  3308  011D                     l1495:	
  3309                           ;incstack = 0
  3310                           ; Regs used in ___lwdiv: [wreg+status,2+status,0]
  3311                           
  3312  011D  01F5               	clrf	___lwdiv@quotient
  3313  011E  01F6               	clrf	___lwdiv@quotient+1
  3314  011F                     l1497:
  3315  011F  0870               	movf	___lwdiv@divisor,w
  3316  0120  0471               	iorwf	___lwdiv@divisor+1,w
  3317  0121  1903               	btfsc	3,2
  3318  0122  2924               	goto	u1081
  3319  0123  2925               	goto	u1080
  3320  0124                     u1081:
  3321  0124  295C               	goto	l1517
  3322  0125                     u1080:
  3323  0125                     l1499:
  3324  0125  01F7               	clrf	___lwdiv@counter
  3325  0126  0AF7               	incf	___lwdiv@counter,f
  3326  0127  2933               	goto	l1505
  3327  0128                     l1501:
  3328  0128  3001               	movlw	1
  3329  0129                     u1095:
  3330  0129  1003               	clrc
  3331  012A  0DF0               	rlf	___lwdiv@divisor,f
  3332  012B  0DF1               	rlf	___lwdiv@divisor+1,f
  3333  012C  3EFF               	addlw	-1
  3334  012D  1D03               	skipz
  3335  012E  2929               	goto	u1095
  3336  012F                     l1503:
  3337  012F  3001               	movlw	1
  3338  0130  00F4               	movwf	??___lwdiv
  3339  0131  0874               	movf	??___lwdiv,w
  3340  0132  07F7               	addwf	___lwdiv@counter,f
  3341  0133                     l1505:
  3342  0133  1FF1               	btfss	___lwdiv@divisor+1,7
  3343  0134  2936               	goto	u1101
  3344  0135  2937               	goto	u1100
  3345  0136                     u1101:
  3346  0136  2928               	goto	l1501
  3347  0137                     u1100:
  3348  0137                     l1507:
  3349  0137  3001               	movlw	1
  3350  0138                     u1115:
  3351  0138  1003               	clrc
  3352  0139  0DF5               	rlf	___lwdiv@quotient,f
  3353  013A  0DF6               	rlf	___lwdiv@quotient+1,f
  3354  013B  3EFF               	addlw	-1
  3355  013C  1D03               	skipz
  3356  013D  2938               	goto	u1115
  3357  013E  0871               	movf	___lwdiv@divisor+1,w
  3358  013F  0273               	subwf	___lwdiv@dividend+1,w
  3359  0140  1D03               	skipz
  3360  0141  2944               	goto	u1125
  3361  0142  0870               	movf	___lwdiv@divisor,w
  3362  0143  0272               	subwf	___lwdiv@dividend,w
  3363  0144                     u1125:
  3364  0144  1C03               	skipc
  3365  0145  2947               	goto	u1121
  3366  0146  2948               	goto	u1120
  3367  0147                     u1121:
  3368  0147  294F               	goto	l1513
  3369  0148                     u1120:
  3370  0148                     l1509:
  3371  0148  0870               	movf	___lwdiv@divisor,w
  3372  0149  02F2               	subwf	___lwdiv@dividend,f
  3373  014A  0871               	movf	___lwdiv@divisor+1,w
  3374  014B  1C03               	skipc
  3375  014C  03F3               	decf	___lwdiv@dividend+1,f
  3376  014D  02F3               	subwf	___lwdiv@dividend+1,f
  3377  014E                     l1511:
  3378  014E  1475               	bsf	___lwdiv@quotient,0
  3379  014F                     l1513:
  3380  014F  3001               	movlw	1
  3381  0150                     u1135:
  3382  0150  1003               	clrc
  3383  0151  0CF1               	rrf	___lwdiv@divisor+1,f
  3384  0152  0CF0               	rrf	___lwdiv@divisor,f
  3385  0153  3EFF               	addlw	-1
  3386  0154  1D03               	skipz
  3387  0155  2950               	goto	u1135
  3388  0156                     l1515:
  3389  0156  3001               	movlw	1
  3390  0157  02F7               	subwf	___lwdiv@counter,f
  3391  0158  1D03               	btfss	3,2
  3392  0159  295B               	goto	u1141
  3393  015A  295C               	goto	u1140
  3394  015B                     u1141:
  3395  015B  2937               	goto	l1507
  3396  015C                     u1140:
  3397  015C                     l1517:
  3398  015C  0876               	movf	___lwdiv@quotient+1,w
  3399  015D  00F1               	movwf	?___lwdiv+1
  3400  015E  0875               	movf	___lwdiv@quotient,w
  3401  015F  00F0               	movwf	?___lwdiv
  3402  0160                     l621:
  3403  0160  0008               	return
  3404  0161                     __end_of___lwdiv:
  3405                           
  3406                           	psect	text13
  3407  026B                     __ptext13:	
  3408 ;; *************** function ___xxtofl *****************
  3409 ;; Defined at:
  3410 ;;		line 10 in file "C:\Program Files\Microchip\xc8\v2.36\pic\sources\c90\common\xxtofl.c"
  3411 ;; Parameters:    Size  Location     Type
  3412 ;;  sign            1    wreg     unsigned char 
  3413 ;;  val             4    0[COMMON] long 
  3414 ;; Auto vars:     Size  Location     Type
  3415 ;;  sign            1    8[COMMON] unsigned char 
  3416 ;;  arg             4   10[COMMON] unsigned long 
  3417 ;;  exp             1    9[COMMON] unsigned char 
  3418 ;; Return value:  Size  Location     Type
  3419 ;;                  4    0[COMMON] unsigned char 
  3420 ;; Registers used:
  3421 ;;		wreg, status,2, status,0
  3422 ;; Tracked objects:
  3423 ;;		On entry : 0/0
  3424 ;;		On exit  : 0/0
  3425 ;;		Unchanged: 0/0
  3426 ;; Data sizes:     COMMON   BANK0   BANK1   BANK3   BANK2
  3427 ;;      Params:         4       0       0       0       0
  3428 ;;      Locals:         6       0       0       0       0
  3429 ;;      Temps:          4       0       0       0       0
  3430 ;;      Totals:        14       0       0       0       0
  3431 ;;Total ram usage:       14 bytes
  3432 ;; Hardware stack levels used: 1
  3433 ;; This function calls:
  3434 ;;		Nothing
  3435 ;; This function is called by:
  3436 ;;		_ADC
  3437 ;; This function uses a non-reentrant model
  3438 ;;
  3439                           
  3440  026B                     ___xxtofl:	
  3441                           ;psect for function ___xxtofl
  3442                           
  3443                           
  3444                           ;incstack = 0
  3445                           ; Regs used in ___xxtofl: [wreg+status,2+status,0]
  3446                           ;___xxtofl@sign stored from wreg
  3447  026B  00F8               	movwf	___xxtofl@sign
  3448  026C                     l1659:
  3449  026C  0878               	movf	___xxtofl@sign,w
  3450  026D  1903               	btfsc	3,2
  3451  026E  2A70               	goto	u1401
  3452  026F  2A71               	goto	u1400
  3453  0270                     u1401:
  3454  0270  2A85               	goto	l1665
  3455  0271                     u1400:
  3456  0271                     l1661:
  3457  0271  1FF3               	btfss	___xxtofl@val+3,7
  3458  0272  2A74               	goto	u1411
  3459  0273  2A75               	goto	u1410
  3460  0274                     u1411:
  3461  0274  2A85               	goto	l1665
  3462  0275                     u1410:
  3463  0275                     l1663:
  3464  0275  0970               	comf	___xxtofl@val,w
  3465  0276  00FA               	movwf	___xxtofl@arg
  3466  0277  0971               	comf	___xxtofl@val+1,w
  3467  0278  00FB               	movwf	___xxtofl@arg+1
  3468  0279  0972               	comf	___xxtofl@val+2,w
  3469  027A  00FC               	movwf	___xxtofl@arg+2
  3470  027B  0973               	comf	___xxtofl@val+3,w
  3471  027C  00FD               	movwf	___xxtofl@arg+3
  3472  027D  0AFA               	incf	___xxtofl@arg,f
  3473  027E  1903               	skipnz
  3474  027F  0AFB               	incf	___xxtofl@arg+1,f
  3475  0280  1903               	skipnz
  3476  0281  0AFC               	incf	___xxtofl@arg+2,f
  3477  0282  1903               	skipnz
  3478  0283  0AFD               	incf	___xxtofl@arg+3,f
  3479  0284  2A8D               	goto	l782
  3480  0285                     l1665:
  3481  0285  0873               	movf	___xxtofl@val+3,w
  3482  0286  00FD               	movwf	___xxtofl@arg+3
  3483  0287  0872               	movf	___xxtofl@val+2,w
  3484  0288  00FC               	movwf	___xxtofl@arg+2
  3485  0289  0871               	movf	___xxtofl@val+1,w
  3486  028A  00FB               	movwf	___xxtofl@arg+1
  3487  028B  0870               	movf	___xxtofl@val,w
  3488  028C  00FA               	movwf	___xxtofl@arg
  3489  028D                     l782:
  3490  028D  0873               	movf	___xxtofl@val+3,w
  3491  028E  0472               	iorwf	___xxtofl@val+2,w
  3492  028F  0471               	iorwf	___xxtofl@val+1,w
  3493  0290  0470               	iorwf	___xxtofl@val,w
  3494  0291  1D03               	skipz
  3495  0292  2A94               	goto	u1421
  3496  0293  2A95               	goto	u1420
  3497  0294                     u1421:
  3498  0294  2A9E               	goto	l1671
  3499  0295                     u1420:
  3500  0295                     l1667:
  3501  0295  3000               	movlw	0
  3502  0296  00F3               	movwf	?___xxtofl+3
  3503  0297  3000               	movlw	0
  3504  0298  00F2               	movwf	?___xxtofl+2
  3505  0299  3000               	movlw	0
  3506  029A  00F1               	movwf	?___xxtofl+1
  3507  029B  3000               	movlw	0
  3508  029C  00F0               	movwf	?___xxtofl
  3509  029D  2B24               	goto	l784
  3510  029E                     l1671:
  3511  029E  3096               	movlw	150
  3512  029F  00F4               	movwf	??___xxtofl
  3513  02A0  0874               	movf	??___xxtofl,w
  3514  02A1  00F9               	movwf	___xxtofl@exp
  3515  02A2  2AB0               	goto	l1675
  3516  02A3                     l1673:
  3517  02A3  3001               	movlw	1
  3518  02A4  00F4               	movwf	??___xxtofl
  3519  02A5  0874               	movf	??___xxtofl,w
  3520  02A6  07F9               	addwf	___xxtofl@exp,f
  3521  02A7  3001               	movlw	1
  3522  02A8                     u1435:
  3523  02A8  1003               	clrc
  3524  02A9  0CFD               	rrf	___xxtofl@arg+3,f
  3525  02AA  0CFC               	rrf	___xxtofl@arg+2,f
  3526  02AB  0CFB               	rrf	___xxtofl@arg+1,f
  3527  02AC  0CFA               	rrf	___xxtofl@arg,f
  3528  02AD  3EFF               	addlw	-1
  3529  02AE  1D03               	skipz
  3530  02AF  2AA8               	goto	u1435
  3531  02B0                     l1675:
  3532  02B0  30FE               	movlw	254
  3533  02B1  057D               	andwf	___xxtofl@arg+3,w
  3534  02B2  1D03               	btfss	3,2
  3535  02B3  2AB5               	goto	u1441
  3536  02B4  2AB6               	goto	u1440
  3537  02B5                     u1441:
  3538  02B5  2AA3               	goto	l1673
  3539  02B6                     u1440:
  3540  02B6  2AD2               	goto	l788
  3541  02B7                     l1677:
  3542  02B7  3001               	movlw	1
  3543  02B8  00F4               	movwf	??___xxtofl
  3544  02B9  0874               	movf	??___xxtofl,w
  3545  02BA  07F9               	addwf	___xxtofl@exp,f
  3546  02BB                     l1679:
  3547  02BB  3001               	movlw	1
  3548  02BC  07FA               	addwf	___xxtofl@arg,f
  3549  02BD  3000               	movlw	0
  3550  02BE  1803               	skipnc
  3551  02BF  3001               	movlw	1
  3552  02C0  07FB               	addwf	___xxtofl@arg+1,f
  3553  02C1  3000               	movlw	0
  3554  02C2  1803               	skipnc
  3555  02C3  3001               	movlw	1
  3556  02C4  07FC               	addwf	___xxtofl@arg+2,f
  3557  02C5  3000               	movlw	0
  3558  02C6  1803               	skipnc
  3559  02C7  3001               	movlw	1
  3560  02C8  07FD               	addwf	___xxtofl@arg+3,f
  3561  02C9                     l1681:
  3562  02C9  3001               	movlw	1
  3563  02CA                     u1455:
  3564  02CA  1003               	clrc
  3565  02CB  0CFD               	rrf	___xxtofl@arg+3,f
  3566  02CC  0CFC               	rrf	___xxtofl@arg+2,f
  3567  02CD  0CFB               	rrf	___xxtofl@arg+1,f
  3568  02CE  0CFA               	rrf	___xxtofl@arg,f
  3569  02CF  3EFF               	addlw	-1
  3570  02D0  1D03               	skipz
  3571  02D1  2ACA               	goto	u1455
  3572  02D2                     l788:
  3573  02D2  30FF               	movlw	255
  3574  02D3  057D               	andwf	___xxtofl@arg+3,w
  3575  02D4  1D03               	btfss	3,2
  3576  02D5  2AD7               	goto	u1461
  3577  02D6  2AD8               	goto	u1460
  3578  02D7                     u1461:
  3579  02D7  2AB7               	goto	l1677
  3580  02D8                     u1460:
  3581  02D8  2AE4               	goto	l1685
  3582  02D9                     l1683:
  3583  02D9  3001               	movlw	1
  3584  02DA  02F9               	subwf	___xxtofl@exp,f
  3585  02DB  3001               	movlw	1
  3586  02DC  00F4               	movwf	??___xxtofl
  3587  02DD                     u1475:
  3588  02DD  1003               	clrc
  3589  02DE  0DFA               	rlf	___xxtofl@arg,f
  3590  02DF  0DFB               	rlf	___xxtofl@arg+1,f
  3591  02E0  0DFC               	rlf	___xxtofl@arg+2,f
  3592  02E1  0DFD               	rlf	___xxtofl@arg+3,f
  3593  02E2  0BF4               	decfsz	??___xxtofl,f
  3594  02E3  2ADD               	goto	u1475
  3595  02E4                     l1685:
  3596  02E4  1BFC               	btfsc	___xxtofl@arg+2,7
  3597  02E5  2AE7               	goto	u1481
  3598  02E6  2AE8               	goto	u1480
  3599  02E7                     u1481:
  3600  02E7  2AEE               	goto	l795
  3601  02E8                     u1480:
  3602  02E8                     l1687:
  3603  02E8  3002               	movlw	2
  3604  02E9  0279               	subwf	___xxtofl@exp,w
  3605  02EA  1803               	skipnc
  3606  02EB  2AED               	goto	u1491
  3607  02EC  2AEE               	goto	u1490
  3608  02ED                     u1491:
  3609  02ED  2AD9               	goto	l1683
  3610  02EE                     u1490:
  3611  02EE                     l795:
  3612  02EE  1879               	btfsc	___xxtofl@exp,0
  3613  02EF  2AF1               	goto	u1501
  3614  02F0  2AF2               	goto	u1500
  3615  02F1                     u1501:
  3616  02F1  2AFA               	goto	l796
  3617  02F2                     u1500:
  3618  02F2                     l1689:
  3619  02F2  30FF               	movlw	255
  3620  02F3  05FA               	andwf	___xxtofl@arg,f
  3621  02F4  30FF               	movlw	255
  3622  02F5  05FB               	andwf	___xxtofl@arg+1,f
  3623  02F6  307F               	movlw	127
  3624  02F7  05FC               	andwf	___xxtofl@arg+2,f
  3625  02F8  30FF               	movlw	255
  3626  02F9  05FD               	andwf	___xxtofl@arg+3,f
  3627  02FA                     l796:
  3628  02FA  1003               	clrc
  3629  02FB  0CF9               	rrf	___xxtofl@exp,f
  3630  02FC                     l1691:
  3631  02FC  0879               	movf	___xxtofl@exp,w
  3632  02FD  00F4               	movwf	??___xxtofl
  3633  02FE  01F5               	clrf	??___xxtofl+1
  3634  02FF  01F6               	clrf	??___xxtofl+2
  3635  0300  01F7               	clrf	??___xxtofl+3
  3636  0301  3018               	movlw	24
  3637  0302                     u1515:
  3638  0302  1003               	clrc
  3639  0303  0DF4               	rlf	??___xxtofl,f
  3640  0304  0DF5               	rlf	??___xxtofl+1,f
  3641  0305  0DF6               	rlf	??___xxtofl+2,f
  3642  0306  0DF7               	rlf	??___xxtofl+3,f
  3643  0307                     u1510:
  3644  0307  3EFF               	addlw	-1
  3645  0308  1D03               	skipz
  3646  0309  2B02               	goto	u1515
  3647  030A  0874               	movf	??___xxtofl,w
  3648  030B  04FA               	iorwf	___xxtofl@arg,f
  3649  030C  0875               	movf	??___xxtofl+1,w
  3650  030D  04FB               	iorwf	___xxtofl@arg+1,f
  3651  030E  0876               	movf	??___xxtofl+2,w
  3652  030F  04FC               	iorwf	___xxtofl@arg+2,f
  3653  0310  0877               	movf	??___xxtofl+3,w
  3654  0311  04FD               	iorwf	___xxtofl@arg+3,f
  3655  0312                     l1693:
  3656  0312  0878               	movf	___xxtofl@sign,w
  3657  0313  1903               	btfsc	3,2
  3658  0314  2B16               	goto	u1521
  3659  0315  2B17               	goto	u1520
  3660  0316                     u1521:
  3661  0316  2B1C               	goto	l1699
  3662  0317                     u1520:
  3663  0317                     l1695:
  3664  0317  1FF3               	btfss	___xxtofl@val+3,7
  3665  0318  2B1A               	goto	u1531
  3666  0319  2B1B               	goto	u1530
  3667  031A                     u1531:
  3668  031A  2B1C               	goto	l1699
  3669  031B                     u1530:
  3670  031B                     l1697:
  3671  031B  17FD               	bsf	___xxtofl@arg+3,7
  3672  031C                     l1699:
  3673  031C  087D               	movf	___xxtofl@arg+3,w
  3674  031D  00F3               	movwf	?___xxtofl+3
  3675  031E  087C               	movf	___xxtofl@arg+2,w
  3676  031F  00F2               	movwf	?___xxtofl+2
  3677  0320  087B               	movf	___xxtofl@arg+1,w
  3678  0321  00F1               	movwf	?___xxtofl+1
  3679  0322  087A               	movf	___xxtofl@arg,w
  3680  0323  00F0               	movwf	?___xxtofl
  3681  0324                     l784:
  3682  0324  0008               	return
  3683  0325                     __end_of___xxtofl:
  3684                           
  3685                           	psect	text14
  3686  01C7                     __ptext14:	
  3687 ;; *************** function ___flge *****************
  3688 ;; Defined at:
  3689 ;;		line 4 in file "C:\Program Files\Microchip\xc8\v2.36\pic\sources\c90\common\flge.c"
  3690 ;; Parameters:    Size  Location     Type
  3691 ;;  ff1             4    0[BANK0 ] unsigned char 
  3692 ;;  ff2             4    4[BANK0 ] unsigned char 
  3693 ;; Auto vars:     Size  Location     Type
  3694 ;;		None
  3695 ;; Return value:  Size  Location     Type
  3696 ;;		None               void
  3697 ;; Registers used:
  3698 ;;		wreg, status,2, status,0
  3699 ;; Tracked objects:
  3700 ;;		On entry : 0/0
  3701 ;;		On exit  : 0/0
  3702 ;;		Unchanged: 0/0
  3703 ;; Data sizes:     COMMON   BANK0   BANK1   BANK3   BANK2
  3704 ;;      Params:         0       8       0       0       0
  3705 ;;      Locals:         0       0       0       0       0
  3706 ;;      Temps:          0       4       0       0       0
  3707 ;;      Totals:         0      12       0       0       0
  3708 ;;Total ram usage:       12 bytes
  3709 ;; Hardware stack levels used: 1
  3710 ;; This function calls:
  3711 ;;		Nothing
  3712 ;; This function is called by:
  3713 ;;		_ADC
  3714 ;; This function uses a non-reentrant model
  3715 ;;
  3716                           
  3717  01C7                     ___flge:	
  3718                           ;psect for function ___flge
  3719                           
  3720  01C7                     l1639:	
  3721                           ;incstack = 0
  3722                           ; Regs used in ___flge: [wreg+status,2+status,0]
  3723                           
  3724  01C7  3000               	movlw	0
  3725  01C8  1283               	bcf	3,5	;RP0=0, select bank0
  3726  01C9  1303               	bcf	3,6	;RP1=0, select bank0
  3727  01CA  0520               	andwf	___flge@ff1,w
  3728  01CB  00A8               	movwf	??___flge
  3729  01CC  3000               	movlw	0
  3730  01CD  0521               	andwf	___flge@ff1+1,w
  3731  01CE  00A9               	movwf	??___flge+1
  3732  01CF  3080               	movlw	128
  3733  01D0  0522               	andwf	___flge@ff1+2,w
  3734  01D1  00AA               	movwf	??___flge+2
  3735  01D2  307F               	movlw	127
  3736  01D3  0523               	andwf	___flge@ff1+3,w
  3737  01D4  00AB               	movwf	??___flge+3
  3738  01D5  082B               	movf	??___flge+3,w
  3739  01D6  042A               	iorwf	??___flge+2,w
  3740  01D7  0429               	iorwf	??___flge+1,w
  3741  01D8  0428               	iorwf	??___flge,w
  3742  01D9  1D03               	skipz
  3743  01DA  29DC               	goto	u1331
  3744  01DB  29DD               	goto	u1330
  3745  01DC                     u1331:
  3746  01DC  29E5               	goto	l523
  3747  01DD                     u1330:
  3748  01DD                     l1641:
  3749  01DD  3000               	movlw	0
  3750  01DE  00A3               	movwf	___flge@ff1+3
  3751  01DF  3000               	movlw	0
  3752  01E0  00A2               	movwf	___flge@ff1+2
  3753  01E1  3000               	movlw	0
  3754  01E2  00A1               	movwf	___flge@ff1+1
  3755  01E3  3000               	movlw	0
  3756  01E4  00A0               	movwf	___flge@ff1
  3757  01E5                     l523:
  3758  01E5  3000               	movlw	0
  3759  01E6  0524               	andwf	___flge@ff2,w
  3760  01E7  00A8               	movwf	??___flge
  3761  01E8  3000               	movlw	0
  3762  01E9  0525               	andwf	___flge@ff2+1,w
  3763  01EA  00A9               	movwf	??___flge+1
  3764  01EB  3080               	movlw	128
  3765  01EC  0526               	andwf	___flge@ff2+2,w
  3766  01ED  00AA               	movwf	??___flge+2
  3767  01EE  307F               	movlw	127
  3768  01EF  0527               	andwf	___flge@ff2+3,w
  3769  01F0  00AB               	movwf	??___flge+3
  3770  01F1  082B               	movf	??___flge+3,w
  3771  01F2  042A               	iorwf	??___flge+2,w
  3772  01F3  0429               	iorwf	??___flge+1,w
  3773  01F4  0428               	iorwf	??___flge,w
  3774  01F5  1D03               	skipz
  3775  01F6  29F8               	goto	u1341
  3776  01F7  29F9               	goto	u1340
  3777  01F8                     u1341:
  3778  01F8  2A01               	goto	l1645
  3779  01F9                     u1340:
  3780  01F9                     l1643:
  3781  01F9  3000               	movlw	0
  3782  01FA  00A7               	movwf	___flge@ff2+3
  3783  01FB  3000               	movlw	0
  3784  01FC  00A6               	movwf	___flge@ff2+2
  3785  01FD  3000               	movlw	0
  3786  01FE  00A5               	movwf	___flge@ff2+1
  3787  01FF  3000               	movlw	0
  3788  0200  00A4               	movwf	___flge@ff2
  3789  0201                     l1645:
  3790  0201  1FA3               	btfss	___flge@ff1+3,7
  3791  0202  2A04               	goto	u1351
  3792  0203  2A05               	goto	u1350
  3793  0204                     u1351:
  3794  0204  2A29               	goto	l1649
  3795  0205                     u1350:
  3796  0205                     l1647:
  3797  0205  3000               	movlw	0
  3798  0206  00A8               	movwf	??___flge
  3799  0207  3000               	movlw	0
  3800  0208  00A9               	movwf	??___flge+1
  3801  0209  3000               	movlw	0
  3802  020A  00AA               	movwf	??___flge+2
  3803  020B  3080               	movlw	128
  3804  020C  00AB               	movwf	??___flge+3
  3805  020D  0820               	movf	___flge@ff1,w
  3806  020E  02A8               	subwf	??___flge,f
  3807  020F  0821               	movf	___flge@ff1+1,w
  3808  0210  1C03               	skipc
  3809  0211  0F21               	incfsz	___flge@ff1+1,w
  3810  0212  2A14               	goto	u1361
  3811  0213  2A15               	goto	u1362
  3812  0214                     u1361:
  3813  0214  02A9               	subwf	??___flge+1,f
  3814  0215                     u1362:
  3815  0215  0822               	movf	___flge@ff1+2,w
  3816  0216  1C03               	skipc
  3817  0217  0F22               	incfsz	___flge@ff1+2,w
  3818  0218  2A1A               	goto	u1363
  3819  0219  2A1B               	goto	u1364
  3820  021A                     u1363:
  3821  021A  02AA               	subwf	??___flge+2,f
  3822  021B                     u1364:
  3823  021B  0823               	movf	___flge@ff1+3,w
  3824  021C  1C03               	skipc
  3825  021D  0F23               	incfsz	___flge@ff1+3,w
  3826  021E  2A20               	goto	u1365
  3827  021F  2A21               	goto	u1366
  3828  0220                     u1365:
  3829  0220  02AB               	subwf	??___flge+3,f
  3830  0221                     u1366:
  3831  0221  082B               	movf	??___flge+3,w
  3832  0222  00A3               	movwf	___flge@ff1+3
  3833  0223  082A               	movf	??___flge+2,w
  3834  0224  00A2               	movwf	___flge@ff1+2
  3835  0225  0829               	movf	??___flge+1,w
  3836  0226  00A1               	movwf	___flge@ff1+1
  3837  0227  0828               	movf	??___flge,w
  3838  0228  00A0               	movwf	___flge@ff1
  3839  0229                     l1649:
  3840  0229  1FA7               	btfss	___flge@ff2+3,7
  3841  022A  2A2C               	goto	u1371
  3842  022B  2A2D               	goto	u1370
  3843  022C                     u1371:
  3844  022C  2A51               	goto	l526
  3845  022D                     u1370:
  3846  022D                     l1651:
  3847  022D  3000               	movlw	0
  3848  022E  00A8               	movwf	??___flge
  3849  022F  3000               	movlw	0
  3850  0230  00A9               	movwf	??___flge+1
  3851  0231  3000               	movlw	0
  3852  0232  00AA               	movwf	??___flge+2
  3853  0233  3080               	movlw	128
  3854  0234  00AB               	movwf	??___flge+3
  3855  0235  0824               	movf	___flge@ff2,w
  3856  0236  02A8               	subwf	??___flge,f
  3857  0237  0825               	movf	___flge@ff2+1,w
  3858  0238  1C03               	skipc
  3859  0239  0F25               	incfsz	___flge@ff2+1,w
  3860  023A  2A3C               	goto	u1381
  3861  023B  2A3D               	goto	u1382
  3862  023C                     u1381:
  3863  023C  02A9               	subwf	??___flge+1,f
  3864  023D                     u1382:
  3865  023D  0826               	movf	___flge@ff2+2,w
  3866  023E  1C03               	skipc
  3867  023F  0F26               	incfsz	___flge@ff2+2,w
  3868  0240  2A42               	goto	u1383
  3869  0241  2A43               	goto	u1384
  3870  0242                     u1383:
  3871  0242  02AA               	subwf	??___flge+2,f
  3872  0243                     u1384:
  3873  0243  0827               	movf	___flge@ff2+3,w
  3874  0244  1C03               	skipc
  3875  0245  0F27               	incfsz	___flge@ff2+3,w
  3876  0246  2A48               	goto	u1385
  3877  0247  2A49               	goto	u1386
  3878  0248                     u1385:
  3879  0248  02AB               	subwf	??___flge+3,f
  3880  0249                     u1386:
  3881  0249  082B               	movf	??___flge+3,w
  3882  024A  00A7               	movwf	___flge@ff2+3
  3883  024B  082A               	movf	??___flge+2,w
  3884  024C  00A6               	movwf	___flge@ff2+2
  3885  024D  0829               	movf	??___flge+1,w
  3886  024E  00A5               	movwf	___flge@ff2+1
  3887  024F  0828               	movf	??___flge,w
  3888  0250  00A4               	movwf	___flge@ff2
  3889  0251                     l526:
  3890  0251  3080               	movlw	128
  3891  0252  06A3               	xorwf	___flge@ff1+3,f
  3892  0253  3080               	movlw	128
  3893  0254  06A7               	xorwf	___flge@ff2+3,f
  3894  0255  0827               	movf	___flge@ff2+3,w
  3895  0256  0223               	subwf	___flge@ff1+3,w
  3896  0257  1D03               	skipz
  3897  0258  2A63               	goto	u1395
  3898  0259  0826               	movf	___flge@ff2+2,w
  3899  025A  0222               	subwf	___flge@ff1+2,w
  3900  025B  1D03               	skipz
  3901  025C  2A63               	goto	u1395
  3902  025D  0825               	movf	___flge@ff2+1,w
  3903  025E  0221               	subwf	___flge@ff1+1,w
  3904  025F  1D03               	skipz
  3905  0260  2A63               	goto	u1395
  3906  0261  0824               	movf	___flge@ff2,w
  3907  0262  0220               	subwf	___flge@ff1,w
  3908  0263                     u1395:
  3909  0263  1803               	skipnc
  3910  0264  2A66               	goto	u1391
  3911  0265  2A67               	goto	u1390
  3912  0266                     u1391:
  3913  0266  2A69               	goto	l1655
  3914  0267                     u1390:
  3915  0267                     l1653:
  3916  0267  1003               	clrc
  3917  0268  2A6A               	goto	l527
  3918  0269                     l1655:
  3919  0269  1403               	setc
  3920  026A                     l527:
  3921  026A  0008               	return
  3922  026B                     __end_of___flge:
  3923                           
  3924                           	psect	text15
  3925  0073                     __ptext15:	
  3926 ;; *************** function _UART_Init *****************
  3927 ;; Defined at:
  3928 ;;		line 46 in file "Probador1.c"
  3929 ;; Parameters:    Size  Location     Type
  3930 ;;		None
  3931 ;; Auto vars:     Size  Location     Type
  3932 ;;		None
  3933 ;; Return value:  Size  Location     Type
  3934 ;;                  1    wreg      void 
  3935 ;; Registers used:
  3936 ;;		wreg
  3937 ;; Tracked objects:
  3938 ;;		On entry : 0/0
  3939 ;;		On exit  : 0/0
  3940 ;;		Unchanged: 0/0
  3941 ;; Data sizes:     COMMON   BANK0   BANK1   BANK3   BANK2
  3942 ;;      Params:         0       0       0       0       0
  3943 ;;      Locals:         0       0       0       0       0
  3944 ;;      Temps:          0       0       0       0       0
  3945 ;;      Totals:         0       0       0       0       0
  3946 ;;Total ram usage:        0 bytes
  3947 ;; Hardware stack levels used: 1
  3948 ;; This function calls:
  3949 ;;		Nothing
  3950 ;; This function is called by:
  3951 ;;		_ADC
  3952 ;; This function uses a non-reentrant model
  3953 ;;
  3954                           
  3955  0073                     _UART_Init:	
  3956                           ;psect for function _UART_Init
  3957                           
  3958  0073                     l1543:	
  3959                           ;incstack = 0
  3960                           ; Regs used in _UART_Init: [wreg]
  3961                           
  3962                           
  3963                           ;Probador1.c: 47:     TXSTAbits.BRGH = 1;
  3964  0073  1683               	bsf	3,5	;RP0=1, select bank1
  3965  0074  1303               	bcf	3,6	;RP1=0, select bank1
  3966  0075  1518               	bsf	24,2	;volatile
  3967  0076                     l1545:
  3968                           
  3969                           ;Probador1.c: 48:     SPBRG = 25;
  3970  0076  3019               	movlw	25
  3971  0077  0099               	movwf	25	;volatile
  3972  0078                     l1547:
  3973                           
  3974                           ;Probador1.c: 49:     RCSTAbits.SPEN = 1;
  3975  0078  1283               	bcf	3,5	;RP0=0, select bank0
  3976  0079  1303               	bcf	3,6	;RP1=0, select bank0
  3977  007A  1798               	bsf	24,7	;volatile
  3978  007B                     l1549:
  3979                           
  3980                           ;Probador1.c: 50:     TXSTAbits.TXEN = 1;
  3981  007B  1683               	bsf	3,5	;RP0=1, select bank1
  3982  007C  1303               	bcf	3,6	;RP1=0, select bank1
  3983  007D  1698               	bsf	24,5	;volatile
  3984  007E                     l1551:
  3985                           
  3986                           ;Probador1.c: 51:     RCSTAbits.CREN = 1;
  3987  007E  1283               	bcf	3,5	;RP0=0, select bank0
  3988  007F  1303               	bcf	3,6	;RP1=0, select bank0
  3989  0080  1618               	bsf	24,4	;volatile
  3990  0081                     l79:
  3991  0081  0008               	return
  3992  0082                     __end_of_UART_Init:
  3993                           
  3994                           	psect	text16
  3995  00B8                     __ptext16:	
  3996 ;; *************** function _ADC_Read *****************
  3997 ;; Defined at:
  3998 ;;		line 70 in file "Probador1.c"
  3999 ;; Parameters:    Size  Location     Type
  4000 ;;  channel         1    wreg     unsigned char 
  4001 ;; Auto vars:     Size  Location     Type
  4002 ;;  channel         1    4[COMMON] unsigned char 
  4003 ;; Return value:  Size  Location     Type
  4004 ;;                  2    0[COMMON] unsigned int 
  4005 ;; Registers used:
  4006 ;;		wreg, status,2, status,0
  4007 ;; Tracked objects:
  4008 ;;		On entry : 0/0
  4009 ;;		On exit  : 0/0
  4010 ;;		Unchanged: 0/0
  4011 ;; Data sizes:     COMMON   BANK0   BANK1   BANK3   BANK2
  4012 ;;      Params:         2       0       0       0       0
  4013 ;;      Locals:         1       0       0       0       0
  4014 ;;      Temps:          2       0       0       0       0
  4015 ;;      Totals:         5       0       0       0       0
  4016 ;;Total ram usage:        5 bytes
  4017 ;; Hardware stack levels used: 1
  4018 ;; This function calls:
  4019 ;;		Nothing
  4020 ;; This function is called by:
  4021 ;;		_ADC
  4022 ;; This function uses a non-reentrant model
  4023 ;;
  4024                           
  4025  00B8                     _ADC_Read:	
  4026                           ;psect for function _ADC_Read
  4027                           
  4028                           
  4029                           ;incstack = 0
  4030                           ; Regs used in _ADC_Read: [wreg+status,2+status,0]
  4031                           ;ADC_Read@channel stored from wreg
  4032  00B8  00F4               	movwf	ADC_Read@channel
  4033  00B9                     l1555:
  4034                           
  4035                           ;Probador1.c: 71:     ADCON0 &= 0x11000101;
  4036  00B9  3001               	movlw	1
  4037  00BA  00F2               	movwf	??_ADC_Read
  4038  00BB  0872               	movf	??_ADC_Read,w
  4039  00BC  1283               	bcf	3,5	;RP0=0, select bank0
  4040  00BD  1303               	bcf	3,6	;RP1=0, select bank0
  4041  00BE  059F               	andwf	31,f	;volatile
  4042                           
  4043                           ;Probador1.c: 72:     ADCON0 |= channel <<3;
  4044  00BF  0874               	movf	ADC_Read@channel,w	;volatile
  4045  00C0  00F2               	movwf	??_ADC_Read
  4046  00C1  3002               	movlw	2
  4047  00C2                     u1215:
  4048  00C2  1003               	clrc
  4049  00C3  0DF2               	rlf	??_ADC_Read,f
  4050  00C4  3EFF               	addlw	-1
  4051  00C5  1D03               	skipz
  4052  00C6  28C2               	goto	u1215
  4053  00C7  1003               	clrc
  4054  00C8  0D72               	rlf	??_ADC_Read,w
  4055  00C9  00F3               	movwf	??_ADC_Read+1
  4056  00CA  0873               	movf	??_ADC_Read+1,w
  4057  00CB  049F               	iorwf	31,f	;volatile
  4058  00CC                     l1557:
  4059                           
  4060                           ;Probador1.c: 73:     _delay((unsigned long)((2)*(8000000UL/4000.0)));
  4061  00CC  3006               	movlw	6
  4062  00CD  00F3               	movwf	??_ADC_Read+1
  4063  00CE  3030               	movlw	48
  4064  00CF  00F2               	movwf	??_ADC_Read
  4065  00D0                     u2277:
  4066  00D0  0BF2               	decfsz	??_ADC_Read,f
  4067  00D1  28D0               	goto	u2277
  4068  00D2  0BF3               	decfsz	??_ADC_Read+1,f
  4069  00D3  28D0               	goto	u2277
  4070  00D4  0000               	nop
  4071  00D5                     l1559:
  4072                           
  4073                           ;Probador1.c: 74:     GO_nDONE = 1;
  4074  00D5  1283               	bcf	3,5	;RP0=0, select bank0
  4075  00D6  1303               	bcf	3,6	;RP1=0, select bank0
  4076  00D7  151F               	bsf	31,2	;volatile
  4077  00D8                     l94:	
  4078                           ;Probador1.c: 75:     while(GO_nDONE);
  4079                           
  4080  00D8  191F               	btfsc	31,2	;volatile
  4081  00D9  28DB               	goto	u1221
  4082  00DA  28DC               	goto	u1220
  4083  00DB                     u1221:
  4084  00DB  28D8               	goto	l94
  4085  00DC                     u1220:
  4086  00DC                     l1561:
  4087                           
  4088                           ;Probador1.c: 76:     return ((ADRESH << 8) + ADRESL);
  4089  00DC  081E               	movf	30,w	;volatile
  4090  00DD  00F1               	movwf	?_ADC_Read+1
  4091  00DE  1683               	bsf	3,5	;RP0=1, select bank1
  4092  00DF  1303               	bcf	3,6	;RP1=0, select bank1
  4093  00E0  081E               	movf	30,w	;volatile
  4094  00E1  00F0               	movwf	?_ADC_Read
  4095  00E2                     l97:
  4096  00E2  0008               	return
  4097  00E3                     __end_of_ADC_Read:
  4098                           
  4099                           	psect	text17
  4100  0091                     __ptext17:	
  4101 ;; *************** function _ADC_Init *****************
  4102 ;; Defined at:
  4103 ;;		line 64 in file "Probador1.c"
  4104 ;; Parameters:    Size  Location     Type
  4105 ;;		None
  4106 ;; Auto vars:     Size  Location     Type
  4107 ;;		None
  4108 ;; Return value:  Size  Location     Type
  4109 ;;                  1    wreg      void 
  4110 ;; Registers used:
  4111 ;;		wreg
  4112 ;; Tracked objects:
  4113 ;;		On entry : 0/0
  4114 ;;		On exit  : 0/0
  4115 ;;		Unchanged: 0/0
  4116 ;; Data sizes:     COMMON   BANK0   BANK1   BANK3   BANK2
  4117 ;;      Params:         0       0       0       0       0
  4118 ;;      Locals:         0       0       0       0       0
  4119 ;;      Temps:          2       0       0       0       0
  4120 ;;      Totals:         2       0       0       0       0
  4121 ;;Total ram usage:        2 bytes
  4122 ;; Hardware stack levels used: 1
  4123 ;; This function calls:
  4124 ;;		Nothing
  4125 ;; This function is called by:
  4126 ;;		_ADC
  4127 ;; This function uses a non-reentrant model
  4128 ;;
  4129                           
  4130  0091                     _ADC_Init:	
  4131                           ;psect for function _ADC_Init
  4132                           
  4133  0091                     l1553:	
  4134                           ;incstack = 0
  4135                           ; Regs used in _ADC_Init: [wreg]
  4136                           
  4137                           
  4138                           ;Probador1.c: 65:     ADCON1 = 0b11000000;
  4139  0091  30C0               	movlw	192
  4140  0092  1683               	bsf	3,5	;RP0=1, select bank1
  4141  0093  1303               	bcf	3,6	;RP1=0, select bank1
  4142  0094  009F               	movwf	31	;volatile
  4143                           
  4144                           ;Probador1.c: 66:     ADCON0 = 0b01000001;
  4145  0095  3041               	movlw	65
  4146  0096  1283               	bcf	3,5	;RP0=0, select bank0
  4147  0097  1303               	bcf	3,6	;RP1=0, select bank0
  4148  0098  009F               	movwf	31	;volatile
  4149                           
  4150                           ;Probador1.c: 67:     _delay((unsigned long)((10)*(8000000UL/4000.0)));
  4151  0099  301A               	movlw	26
  4152  009A  00F1               	movwf	??_ADC_Init+1
  4153  009B  30F8               	movlw	248
  4154  009C  00F0               	movwf	??_ADC_Init
  4155  009D                     u2287:
  4156  009D  0BF0               	decfsz	??_ADC_Init,f
  4157  009E  289D               	goto	u2287
  4158  009F  0BF1               	decfsz	??_ADC_Init+1,f
  4159  00A0  289D               	goto	u2287
  4160  00A1  0000               	nop
  4161  00A2                     l91:
  4162  00A2  0008               	return
  4163  00A3                     __end_of_ADC_Init:
  4164  007E                     btemp	set	126	;btemp
  4165  007E                     wtemp0	set	126
  4166                           
  4167                           	psect	idloc
  4168                           
  4169                           ;Config register IDLOC0 @ 0x2000
  4170                           ;	unspecified, using default values
  4171  2000                     	org	8192
  4172  2000  3FFF               	dw	16383
  4173                           
  4174                           ;Config register IDLOC1 @ 0x2001
  4175                           ;	unspecified, using default values
  4176  2001                     	org	8193
  4177  2001  3FFF               	dw	16383
  4178                           
  4179                           ;Config register IDLOC2 @ 0x2002
  4180                           ;	unspecified, using default values
  4181  2002                     	org	8194
  4182  2002  3FFF               	dw	16383
  4183                           
  4184                           ;Config register IDLOC3 @ 0x2003
  4185                           ;	unspecified, using default values
  4186  2003                     	org	8195
  4187  2003  3FFF               	dw	16383
  4188                           
  4189                           	psect	config
  4190                           
  4191                           ;Config register CONFIG @ 0x2007
  4192                           ;	Oscillator Selection bits
  4193                           ;	FOSC = XT, XT oscillator
  4194                           ;	Watchdog Timer Enable bit
  4195                           ;	WDTE = OFF, WDT disabled
  4196                           ;	Power-up Timer Enable bit
  4197                           ;	PWRTE = ON, PWRT enabled
  4198                           ;	Brown-out Reset Enable bit
  4199                           ;	BOREN = ON, BOR enabled
  4200                           ;	Low-Voltage (Single-Supply) In-Circuit Serial Programming Enable bit
  4201                           ;	LVP = OFF, RB3 is digital I/O, HV on MCLR must be used for programming
  4202                           ;	Data EEPROM Memory Code Protection bit
  4203                           ;	CPD = OFF, Data EEPROM code protection off
  4204                           ;	Flash Program Memory Write Enable bits
  4205                           ;	WRT = OFF, Write protection off; all program memory may be written to by EECON control
  4206                           ;	In-Circuit Debugger Mode bit
  4207                           ;	DEBUG = 0x1, unprogrammed default
  4208                           ;	Flash Program Memory Code Protection bit
  4209                           ;	CP = OFF, Code protection off
  4210  2007                     	org	8199
  4211  2007  3F71               	dw	16241

Data Sizes:
    Strings     18
    Constant    10
    Data        1
    BSS         6
    Persistent  1
    Stack       0

Auto Spaces:
    Space          Size  Autos    Used
    COMMON           14     14      14
    BANK0            80     27      35
    BANK1            80      0       0
    BANK3            96      0       0
    BANK2            96      0       0

Pointer List with Targets:

    printf@f	PTR const unsigned char  size(1) Largest target is 11
		 -> STR_2(CODE[11]), STR_1(CODE[7]), 

    printf@ap	PTR void [1] size(1) Largest target is 2
		 -> ?_printf(BANK0[2]), 


Critical Paths under _main in COMMON

    _Prueba_sal->_salidas
    _ADC->___xxtofl
    _printf->___lwmod
    _putch->_UART_Write
    ___lwmod->___lwdiv
    ___flge->___xxtofl

Critical Paths under _main in BANK0

    _main->_ADC
    _ADC->___flge
    _ADC->_printf

Critical Paths under _main in BANK1

    None.

Critical Paths under _main in BANK3

    None.

Critical Paths under _main in BANK2

    None.

Call Graph Tables:

 ---------------------------------------------------------------------------------
 (Depth) Function   	        Calls       Base Space   Used Autos Params    Refs
 ---------------------------------------------------------------------------------
 (0) _main                                                 9     9      0    2755
                                             19 BANK0      8     8      0
                                _ADC
                         _Prueba_sal
                       _port_conf_r1
                       _port_conf_r2
                          _porte_ent
                          _porte_sal
 ---------------------------------------------------------------------------------
 (1) _porte_sal                                            0     0      0       0
 ---------------------------------------------------------------------------------
 (1) _porte_ent                                            0     0      0       0
 ---------------------------------------------------------------------------------
 (1) _port_conf_r2                                         0     0      0       0
 ---------------------------------------------------------------------------------
 (1) _port_conf_r1                                         0     0      0       0
 ---------------------------------------------------------------------------------
 (1) _Prueba_sal                                           2     2      0     156
                                              4 COMMON     2     2      0
                            _salidas
 ---------------------------------------------------------------------------------
 (2) _salidas                                              4     4      0     110
                                              0 COMMON     4     4      0
 ---------------------------------------------------------------------------------
 (1) _ADC                                                  7     7      0    2434
                                             12 BANK0      7     7      0
                           _ADC_Init
                           _ADC_Read
                          _UART_Init
                             ___flge
                           ___xxtofl
                             _printf
 ---------------------------------------------------------------------------------
 (2) _printf                                              20    18      2    1054
                                              0 BANK0     12    10      2
                            ___lwdiv
                            ___lwmod
                              _putch
 ---------------------------------------------------------------------------------
 (3) _putch                                                1     1      0      44
                                              1 COMMON     1     1      0
                         _UART_Write
 ---------------------------------------------------------------------------------
 (4) _UART_Write                                           1     1      0      22
                                              0 COMMON     1     1      0
 ---------------------------------------------------------------------------------
 (3) ___lwmod                                              6     2      4     311
                                              8 COMMON     6     2      4
                            ___lwdiv (ARG)
 ---------------------------------------------------------------------------------
 (3) ___lwdiv                                              8     4      4     314
                                              0 COMMON     8     4      4
 ---------------------------------------------------------------------------------
 (2) ___xxtofl                                            14    10      4     474
                                              0 COMMON    14    10      4
 ---------------------------------------------------------------------------------
 (2) ___flge                                              12     4      8     486
                                              0 BANK0     12     4      8
                           ___xxtofl (ARG)
 ---------------------------------------------------------------------------------
 (2) _UART_Init                                            0     0      0       0
 ---------------------------------------------------------------------------------
 (2) _ADC_Read                                             5     3      2      22
                                              0 COMMON     5     3      2
 ---------------------------------------------------------------------------------
 (2) _ADC_Init                                             2     2      0       0
                                              0 COMMON     2     2      0
 ---------------------------------------------------------------------------------
 Estimated maximum stack depth 4
 ---------------------------------------------------------------------------------

 Call Graph Graphs:

 _main (ROOT)
   _ADC
     _ADC_Init
     _ADC_Read
     _UART_Init
     ___flge
       ___xxtofl (ARG)
     ___xxtofl
     _printf
       ___lwdiv
       ___lwmod
         ___lwdiv (ARG)
       _putch
         _UART_Write
   _Prueba_sal
     _salidas
   _port_conf_r1
   _port_conf_r2
   _porte_ent
   _porte_sal

 Address spaces:
Name               Size   Autos  Total    Cost      Usage
BANK3               60      0       0       9        0.0%
BITBANK3            60      0       0       8        0.0%
SFR3                 0      0       0       4        0.0%
BITSFR3              0      0       0       4        0.0%
BANK2               60      0       0      11        0.0%
BITBANK2            60      0       0      10        0.0%
SFR2                 0      0       0       5        0.0%
BITSFR2              0      0       0       5        0.0%
BANK1               50      0       0       7        0.0%
BITBANK1            50      0       0       6        0.0%
SFR1                 0      0       0       2        0.0%
BITSFR1              0      0       0       2        0.0%
BANK0               50     1B      23       5       43.8%
BITBANK0            50      0       0       4        0.0%
SFR0                 0      0       0       1        0.0%
BITSFR0              0      0       0       1        0.0%
COMMON               E      E       E       1      100.0%
BITCOMMON            E      0       0       0        0.0%
CODE                 0      0       0       0        0.0%
DATA                 0      0      31      12        0.0%
ABS                  0      0      31       3        0.0%
NULL                 0      0       0       0        0.0%
STACK                0      0       0       2        0.0%
EEDATA             100      0       0       0        0.0%


Microchip Technology PIC Macro Assembler V2.36 build 20220127204148 
Symbol Table                                                                                   Tue Apr 29 19:30:26 2025

                      pc 0002                       l82 005A                       l91 00A2  
                     l85 0064                       l94 00D8                       l79 0081  
                     l88 0058                       l97 00E2                       _xx 003C  
                     fsr 0004                      l102 0448                      l110 0512  
                    l103 045C                      l104 0470                      l105 0484  
                    l106 0498                      l130 05A3                      l107 04AC  
                    l211 0072                      l108 04C0                      l220 004B  
                    l124 054E                      l116 052B                      l109 04D4  
                    l141 05BA                      l214 0090                      l119 052F  
                    l217 0050                      l226 00B7                      l162 067E  
                    l146 0610                      l171 06A8                      l155 0631  
                    l139 05C3                      l236 01C6                      l173 0696  
                    l157 0628                      _ADC 03E8                      l345 03E7  
                    l194 0771                      l178 06F5                      l523 01E5  
                    l187 0722                      l621 0160                      l189 0716  
                    l526 0251                      l527 026A                      l631 011C  
                    l782 028D                      l784 0324                      l795 02EE  
                    l796 02FA                      l788 02D2                      _RE0 0048  
                    _RE1 0049                      _RE2 004A                      fsr0 0004  
                    indf 0000                     ADC@i 002F                     ?_ADC 0070  
                   l2001 07AF                     l2011 07DE                     l2013 07E4  
                   l2005 07BD                     l2007 07CD                     l2015 07EA  
                   l2009 07D0                     l1501 0128                     l1511 014E  
                   l1503 012F                     l1513 014F                     l1505 0133  
                   l1521 00E3                     l1601 03C8                     l1515 0156  
                   l1507 0137                     l1531 00FB                     l1523 00E9  
                   l1603 03D3                     l1611 0163                     l2083 0780  
                   l1509 0148                     l1517 015C                     l1533 0105  
                   l1525 00EC                     l2085 01B5                     l1613 016E  
                   l1551 007E                     l1543 0073                     l1535 010B  
                   l1527 00F3                     l2087 0353                     l1703 03E8  
                   l1623 0193                     l1615 017B                     l1553 0091  
                   l1561 00DC                     l1545 0076                     l1641 01DD  
                   l1537 0112                     l1529 00F7                     l1721 0451  
                   l1713 0425                     l1705 03F2                     l1633 01AB  
                   l1609 0162                     l1801 0554                     l1555 00B9  
                   l1547 0078                     l1651 022D                     l1643 01F9  
                   l1539 0118                     l1491 0060                     l1571 033A  
                   l1731 0482                     l1723 045A                     l1715 0431  
                   l1707 03F5                     l1627 019F                     l1619 0187  
                   l1811 0564                     l1557 00CC                     l1549 007B  
                   l1653 0267                     l1645 0201                     l1661 0271  
                   l1493 0052                     l1581 0363                     l1573 033C  
                   l1565 0328                     l1741 04B5                     l1733 048D  
                   l1725 0465                     l1717 043B                     l1709 03FB  
                   l1901 067A                     l1821 0587                     l1813 0565  
                   l1805 0559                     l1559 00D5                     l1655 0269  
                   l1647 0205                     l1639 01C7                     l1671 029E  
                   l1663 0275                     l1495 011D                     l1583 0367  
                   l1567 032D                     l1743 04BE                     l1735 0496  
                   l1727 046E                     l1719 0446                     l1751 0082  
                   l1911 069A                     l1903 0685                     l1831 05A9  
                   l1823 0596                     l1815 056B                     l1807 055E  
                   l1649 0229                     l1681 02C9                     l1673 02A3  
                   l1665 0285                     l1497 011F                     l1489 005A  
                   l1593 0385                     l1577 0341                     l1569 0333  
                   l1745 04C9                     l1737 04A1                     l1729 0479  
                   l1761 008F                     l1753 0088                     l1921 06B0  
                   l1913 06A2                     l1905 068A                     l1833 05AE  
                   l1817 056C                     l1825 059A                     l1809 0562  
                   l1691 02FC                     l1683 02D9                     l1675 02B0  
                   l1667 0295                     l1659 026C                     l1499 0125  
                   l1595 038F                     l1579 035B                     l1747 04D2  
                   l1739 04AA                     l1771 00AF                     l1755 008A  
                   l1763 004C                     l1931 06D4                     l1923 06B2  
                   l1907 068F                     l1851 05D3                     l1843 05C5  
                   l1835 05B3                     l1827 05A0                     l1819 057A  
                   l1693 0312                     l1685 02E4                     l1677 02B7  
                   l1597 0394                     l1589 0369                     l1749 04EB  
                   l1765 00A3                     l1757 008D                     l1773 0065  
                   l1941 06FC                     l1933 06E3                     l1925 06B8  
                   l1917 06AA                     l1853 05D4                     l1861 0602  
                   l1845 05C9                     l1781 051D                     l1695 0317  
                   l1687 02E8                     l1679 02BB                     l1599 03C2  
                   l1767 00A5                     l1759 008E                     l1775 006F  
                   l1943 0701                     l1927 06B9                     l1935 06E7  
                   l1919 06AE                     l1871 0621                     l1863 0608  
                   l1855 05E2                     l1847 05CB                     l1839 05BE  
                   l1791 0537                     l1783 0523                     l1697 031B  
                   l1689 02F2                     l1769 00AB                     l1777 0048  
                   l1961 0724                     l1953 071A                     l1945 0706  
                   l1937 06ED                     l1929 06C7                     l1881 0637  
                   l1865 060C                     l1857 05EF                     l1849 05CD  
                   l1793 0541                     l1785 0525                     l1699 031C  
                   l1971 0733                     l1963 0728                     l1955 071B  
                   l1947 070B                     l1939 06F1                     l1891 0650  
                   l1883 0639                     l1875 062C                     l1867 0617  
                   l1859 05FE                     l1795 0546                     l1779 0513  
                   l1981 0767                     l1973 0741                     l1965 072A  
                   l1957 071D                     l1949 0711                     l1893 065D  
                   l1885 063B                     l1869 061C                     l1797 054C  
                   l1789 0532                     l1983 0768                     l1975 074E  
                   l1967 072C                     l1895 066C                     l1887 0641  
                   l1879 0633                     l1799 0552                     l1991 0791  
                   l1993 0799                     l1985 076C                     l1977 075D  
                   l1969 0732                     l1889 0642                     l1897 0670  
                   l1995 079E                     l1979 0761                     l1899 0676  
                   l1997 07A4                     l1989 0778                     l1999 07AA  
                   STR_1 001E                     STR_2 0013                     u1100 0137  
                   u1101 0136                     u1120 0148                     u1200 0118  
                   u2000 06ED                     u1121 0147                     u1201 0117  
                   u2001 06EC                     u2010 06FB                     u1115 0138  
                   u2011 06FA                     u1220 00DC                     u1140 015C  
                   u2100 07AA                     u2020 0701                     u1221 00DB  
                   u1141 015B                     u1125 0144                     u2101 07A9  
                   u2021 0700                     u1150 00E9                     u1070 0060  
                   u1230 0333                     u2110 07BC                     u2030 0711  
                   u1215 00C2                     u1135 0150                     u1151 00E8  
                   u1071 005F                     u1231 0332                     u2111 07BB  
                   u2031 0710                     u1400 0271                     u1080 0125  
                   u1240 0384                     u1304 018D                     u2120 07EA  
                   u2040 071A                     u1401 0270                     u1081 0124  
                   u1241 0383                     u1305 018B                     u2121 07E9  
                   u2041 0719                     u1330 01DD                     u1410 0275  
                   u1170 00FB                     u1250 038F                     u1314 0199  
                   u2050 0732                     u1331 01DC                     u1411 0274  
                   u1171 00FA                     u1251 038E                     u1315 0197  
                   u2051 0731                     u1340 01F9                     u1500 02F2  
                   u1420 0295                     u1180 0105                     u1260 03D3  
                   u1324 01A5                     u1341 01F8                     u1501 02F1  
                   u1421 0294                     u1181 0104                     u1165 00ED  
                   u1261 03D2                     u1245 0380                     u1325 01A3  
                   u1350 0205                     u1510 0307                     u1270 03E7  
                   u2070 0767                     u1351 0204                     u1095 0129  
                   u1271 03E6                     u2071 0766                     u2207 06D0  
                   u1520 0317                     u1440 02B6                     u1600 0479  
                   u2080 0777                     u2064 0756                     u1361 0214  
                   u1521 0316                     u1441 02B5                     u1185 0101  
                   u1601 0478                     u2081 0776                     u2065 0754  
                   u2217 073B                     u2137 0574                     u1370 022D  
                   u1362 0215                     u1530 031B                     u1610 0482  
                   u2090 0799                     u1371 022C                     u1363 021A  
                   u1531 031A                     u1515 0302                     u1435 02A8  
                   u1195 010C                     u1611 0481                     u2091 0798  
                   u2227 074A                     u2147 0583                     u1364 021B  
                   u1460 02D8                     u1700 0512                     u1620 048D  
                   u1540 0424                     u1284 0169                     u1381 023C  
                   u1365 0220                     u1461 02D7                     u1701 0511  
                   u1621 048C                     u1541 0423                     u1285 0167  
                   u2237 07C7                     u2157 05DC                     u1390 0267  
                   u1382 023D                     u1366 0221                     u1630 0496  
                   u1550 0446                     u1294 0181                     u1710 00B7  
                   u1391 0266                     u1383 0242                     u1455 02CA  
                   u1631 0495                     u1551 0445                     u1295 017F  
                   u1711 00B6                     u2247 07D8                     u2167 05EB  
                   u1384 0243                     u1480 02E8                     u1640 04A1  
                   u1560 0451                     u1800 05A8                     u1720 052A  
                   u1385 0248                     u1481 02E7                     u1641 04A0  
                   u1561 0450                     u2257 0174                     u2177 064A  
                   u1801 05A7                     u1721 0529                     u1386 0249  
                   u1490 02EE                     u1650 04AA                     u1570 045A  
                   u1810 05AE                     u1730 052F                     u1395 0263  
                   u1491 02ED                     u1475 02DD                     u2267 04DC  
                   u1651 04A9                     u1571 0459                     u2187 0659  
                   u1811 05AD                     u1731 052E                     u1660 04B5  
                   u1580 0465                     u1900 062C                     u1820 05B9  
                   u1740 0537                     u2277 00D0                     u1661 04B4  
                   u1581 0464                     u2197 06C1                     u1901 062B  
                   u1821 05B8                     u1741 0536                     u1670 04BE  
                   u1590 046E                     u1910 0641                     u1830 05BE  
                   u1750 054C                     u2287 009D                     u1671 04BD  
                   u1591 046D                     u1911 0640                     u1831 05BD  
                   u1751 054B                     u1680 04C9                     u1840 05D3  
                   u1760 0552                     u1681 04C8                     u1841 05D2  
                   u1761 0551                     u1690 04D2                     u1930 0676  
                   u1770 056B                     u1691 04D1                     u1931 0675  
                   u1771 056A                     u1940 0684                     u1924 0665  
                   u1860 0608                     u1941 0683                     u1925 0663  
                   u1861 0607                     u1950 068A                     u1870 0616  
                   u1854 05F7                     u1790 05A0                     u1951 0689  
                   u1871 0615                     u1855 05F5                     u1791 059F  
                   u1960 0695                     u1880 061C                     u1784 058F  
                   u1961 0694                     u1881 061B                     u1785 058D  
                   u1970 069A                     u1890 0627                     u1971 0699  
                   u1891 0626                     u1980 06B8                     u1981 06B7  
                   u1994 06DC                     u1995 06DA                     _caso 003B  
                   _main 0513                     _mask 003E                     btemp 007E  
       __end_of_ADC_Init 00A3         __end_of_ADC_Read 00E3                     start 0000  
                  ??_ADC 002C                    ?_main 0070          __end_of___lwdiv 0161  
        __end_of___lwmod 011D                    _SPBRG 0099                    _PORTA 0005  
                  _PORTB 0006                    _PORTC 0007                    _PORTD 0008  
                  _PORTE 0009                    _TRISA 0085                    _TRISB 0086  
                  _TRISC 0087                    _TRISD 0088                    _TRISE 0089  
                  _TXREG 0019              ?_UART_Write 0070          __end_of_dpowers 0013  
                  _putch 0051          __end_of_salidas 01C7                    pclath 000A  
                  status 0003                    wtemp0 007E          __initialization 07F0  
           __end_of_main 07F0                   ??_main 0033                   _ADCON0 001F  
                 _ADCON1 009F                   _ADRESH 001E                   _ADRESL 009E  
                 ?_putch 0070         __end_of___xxtofl 0325        __end_of_UART_Init 0082  
                 ___flge 01C7                ??___lwdiv 0074                ??___lwmod 007C  
        ADC_Read@channel 0074                   _printf 0325                   _prueba 003D  
                 _puerto 003F               _Prueba_sal 00A3                ?_ADC_Init 0070  
              ?_ADC_Read 0070                ??_salidas 0070               ___flge@ff1 0020  
             ___flge@ff2 0024             ___xxtofl@arg 007A             ___xxtofl@exp 0079  
           ___xxtofl@val 0070  __end_of__initialization 07FC           __pcstackCOMMON 0070  
           __pidataBANK0 0047            __end_of_putch 0059               ??_ADC_Init 0070  
             ??_ADC_Read 0072                  ??_putch 0071               __pbssBANK0 003B  
             __pmaintext 0513                  ?___flge 0020                  ?_printf 0020  
            ?_Prueba_sal 0070                ?___xxtofl 0070             ??_UART_Write 0070  
             __stringtab 0003               _incremento 0040       __end_of_UART_Write 0065  
                ___lwdiv 011D                  ___lwmod 00E3                  __ptext1 0048  
                __ptext2 004C                  __ptext3 0065                  __ptext4 0082  
                __ptext5 00A3                  __ptext6 0161                  __ptext7 03E8  
                __ptext8 0325                  __ptext9 0051                  _dpowers 0009  
             ??___xxtofl 0074                  _salidas 0161                  _nro_pin 0042  
   end_of_initialization 07FC        __end_of_porte_ent 0051        __end_of_porte_sal 004C  
              _RCSTAbits 0018                  printf@c 002B                  printf@f 002A  
            Prueba_sal@i 0075                _UART_Init 0073           UART_Write@data 0070  
          ___xxtofl@sign 0078            ?_port_conf_r1 0070            ?_port_conf_r2 0070  
              _TXSTAbits 0098           __end_of___flge 026B               ?_UART_Init 0070  
         __end_of_printf 03E8      start_initialization 07F0              __end_of_ADC 0513  
         ??_port_conf_r1 0070           ??_port_conf_r2 0070                 ADC@valor 0031  
               ??___flge 0028              __pdataBANK0 0042                 ??_printf 0022  
           ??_Prueba_sal 0074                ___latbits 0002            __pcstackBANK0 0020  
              __pnvBANK0 0041         ___lwdiv@dividend 0072       __end_of_Prueba_sal 00B8  
               ?___lwdiv 0070                 ?___lwmod 0078              ??_UART_Init 0070  
              __pstrings 0003                 _ADC_Init 0091                 _ADC_Read 00B8  
               ?_salidas 0070         ___lwdiv@quotient 0075                 _GO_nDONE 00FA  
   __end_of_port_conf_r1 0091     __end_of_port_conf_r2 0073                _porte_ent 004C  
              _porte_sal 0048              __stringbase 0008                main@i_211 003A  
              main@i_206 0036                main@i_207 0037                main@i_208 0038  
              main@i_209 0039               printf@flag 0025               printf@prec 0029  
             ?_porte_ent 0070               ?_porte_sal 0070       __end_of__stringtab 0009  
               ___xxtofl 026B          ___lwdiv@divisor 0070          ___lwdiv@counter 0077  
               __ptext10 0059                 __ptext11 00E3                 __ptext12 011D  
               __ptext13 026B                 __ptext14 01C7                 __ptext15 0073  
               __ptext16 00B8                 __ptext17 0091                 _port_act 0041  
              printf@val 0027                putch@data 0071                 salidas@i 0073  
       ___lwmod@dividend 007A                stringcode 0003                 printf@ap 0026  
            ??_porte_ent 0070              ??_porte_sal 0070          ___lwmod@divisor 0078  
        ___lwmod@counter 007D                 stringdir 0003                 stringtab 0003  
             _UART_Write 0059             _port_conf_r1 0082             _port_conf_r2 0065  
